ARM GAS  C:\Users\Svilen\AppData\Local\Temp\ccPYKfAy.s 			page 1


   1              		.cpu cortex-m0
   2              		.fpu softvfp
   3              		.eabi_attribute 20, 1
   4              		.eabi_attribute 21, 1
   5              		.eabi_attribute 23, 3
   6              		.eabi_attribute 24, 1
   7              		.eabi_attribute 25, 1
   8              		.eabi_attribute 26, 1
   9              		.eabi_attribute 30, 1
  10              		.eabi_attribute 34, 0
  11              		.eabi_attribute 18, 4
  12              		.code	16
  13              		.file	"cyfitter_cfg.c"
  14              		.text
  15              	.Ltext0:
  16              		.cfi_sections	.debug_frame
  17              		.section	.text.cfg_write_bytes32,"ax",%progbits
  18              		.align	2
  19              		.code	16
  20              		.thumb_func
  21              		.type	cfg_write_bytes32, %function
  22              	cfg_write_bytes32:
  23              	.LFB3:
  24              		.file 1 ".\\Generated_Source\\PSoC4\\cyfitter_cfg.c"
   1:.\Generated_Source\PSoC4/cyfitter_cfg.c **** /*******************************************************************************
   2:.\Generated_Source\PSoC4/cyfitter_cfg.c **** * File Name: cyfitter_cfg.c
   3:.\Generated_Source\PSoC4/cyfitter_cfg.c **** * 
   4:.\Generated_Source\PSoC4/cyfitter_cfg.c **** * PSoC Creator  3.3 CP3
   5:.\Generated_Source\PSoC4/cyfitter_cfg.c **** *
   6:.\Generated_Source\PSoC4/cyfitter_cfg.c **** * Description:
   7:.\Generated_Source\PSoC4/cyfitter_cfg.c **** * This file contains device initialization code.
   8:.\Generated_Source\PSoC4/cyfitter_cfg.c **** * Except for the user defined sections in CyClockStartupError(), this file should not be modified.
   9:.\Generated_Source\PSoC4/cyfitter_cfg.c **** * This file is automatically generated by PSoC Creator.
  10:.\Generated_Source\PSoC4/cyfitter_cfg.c **** *
  11:.\Generated_Source\PSoC4/cyfitter_cfg.c **** ********************************************************************************
  12:.\Generated_Source\PSoC4/cyfitter_cfg.c **** * Copyright (c) 2007-2016 Cypress Semiconductor.  All rights reserved.
  13:.\Generated_Source\PSoC4/cyfitter_cfg.c **** * You may use this file only in accordance with the license, terms, conditions, 
  14:.\Generated_Source\PSoC4/cyfitter_cfg.c **** * disclaimers, and limitations in the end user license agreement accompanying 
  15:.\Generated_Source\PSoC4/cyfitter_cfg.c **** * the software package with which this file was provided.
  16:.\Generated_Source\PSoC4/cyfitter_cfg.c **** ********************************************************************************/
  17:.\Generated_Source\PSoC4/cyfitter_cfg.c **** 
  18:.\Generated_Source\PSoC4/cyfitter_cfg.c **** #include <string.h>
  19:.\Generated_Source\PSoC4/cyfitter_cfg.c **** #include "cytypes.h"
  20:.\Generated_Source\PSoC4/cyfitter_cfg.c **** #include "cydevice_trm.h"
  21:.\Generated_Source\PSoC4/cyfitter_cfg.c **** #include "cyfitter.h"
  22:.\Generated_Source\PSoC4/cyfitter_cfg.c **** #include "CyLib.h"
  23:.\Generated_Source\PSoC4/cyfitter_cfg.c **** #include "CyLFClk.h"
  24:.\Generated_Source\PSoC4/cyfitter_cfg.c **** #include "cyfitter_cfg.h"
  25:.\Generated_Source\PSoC4/cyfitter_cfg.c **** 
  26:.\Generated_Source\PSoC4/cyfitter_cfg.c **** 
  27:.\Generated_Source\PSoC4/cyfitter_cfg.c **** #if defined(__GNUC__) || defined(__ARMCC_VERSION)
  28:.\Generated_Source\PSoC4/cyfitter_cfg.c ****     #define CYPACKED 
  29:.\Generated_Source\PSoC4/cyfitter_cfg.c ****     #define CYPACKED_ATTR __attribute__ ((packed))
  30:.\Generated_Source\PSoC4/cyfitter_cfg.c ****     #define CYALIGNED __attribute__ ((aligned))
  31:.\Generated_Source\PSoC4/cyfitter_cfg.c ****     #define CY_CFG_UNUSED __attribute__ ((unused))
  32:.\Generated_Source\PSoC4/cyfitter_cfg.c ****     #ifndef CY_CFG_SECTION
  33:.\Generated_Source\PSoC4/cyfitter_cfg.c ****         #define CY_CFG_SECTION __attribute__ ((section(".psocinit")))
ARM GAS  C:\Users\Svilen\AppData\Local\Temp\ccPYKfAy.s 			page 2


  34:.\Generated_Source\PSoC4/cyfitter_cfg.c ****     #endif
  35:.\Generated_Source\PSoC4/cyfitter_cfg.c ****     
  36:.\Generated_Source\PSoC4/cyfitter_cfg.c ****     #if defined(__ARMCC_VERSION)
  37:.\Generated_Source\PSoC4/cyfitter_cfg.c ****         #define CY_CFG_MEMORY_BARRIER() __memory_changed()
  38:.\Generated_Source\PSoC4/cyfitter_cfg.c ****     #else
  39:.\Generated_Source\PSoC4/cyfitter_cfg.c ****         #define CY_CFG_MEMORY_BARRIER() __sync_synchronize()
  40:.\Generated_Source\PSoC4/cyfitter_cfg.c ****     #endif
  41:.\Generated_Source\PSoC4/cyfitter_cfg.c ****     
  42:.\Generated_Source\PSoC4/cyfitter_cfg.c **** #elif defined(__ICCARM__)
  43:.\Generated_Source\PSoC4/cyfitter_cfg.c ****     #include <intrinsics.h>
  44:.\Generated_Source\PSoC4/cyfitter_cfg.c **** 
  45:.\Generated_Source\PSoC4/cyfitter_cfg.c ****     #define CYPACKED __packed
  46:.\Generated_Source\PSoC4/cyfitter_cfg.c ****     #define CYPACKED_ATTR 
  47:.\Generated_Source\PSoC4/cyfitter_cfg.c ****     #define CYALIGNED _Pragma("data_alignment=4")
  48:.\Generated_Source\PSoC4/cyfitter_cfg.c ****     #define CY_CFG_UNUSED _Pragma("diag_suppress=Pe177")
  49:.\Generated_Source\PSoC4/cyfitter_cfg.c ****     #define CY_CFG_SECTION _Pragma("location=\".psocinit\"")
  50:.\Generated_Source\PSoC4/cyfitter_cfg.c ****     
  51:.\Generated_Source\PSoC4/cyfitter_cfg.c ****     #define CY_CFG_MEMORY_BARRIER() __DMB()
  52:.\Generated_Source\PSoC4/cyfitter_cfg.c ****     
  53:.\Generated_Source\PSoC4/cyfitter_cfg.c **** #else
  54:.\Generated_Source\PSoC4/cyfitter_cfg.c ****     #error Unsupported toolchain
  55:.\Generated_Source\PSoC4/cyfitter_cfg.c **** #endif
  56:.\Generated_Source\PSoC4/cyfitter_cfg.c **** 
  57:.\Generated_Source\PSoC4/cyfitter_cfg.c **** 
  58:.\Generated_Source\PSoC4/cyfitter_cfg.c **** CY_CFG_UNUSED
  59:.\Generated_Source\PSoC4/cyfitter_cfg.c **** static void CYMEMZERO(void *s, size_t n);
  60:.\Generated_Source\PSoC4/cyfitter_cfg.c **** CY_CFG_UNUSED
  61:.\Generated_Source\PSoC4/cyfitter_cfg.c **** static void CYMEMZERO(void *s, size_t n)
  62:.\Generated_Source\PSoC4/cyfitter_cfg.c **** {
  63:.\Generated_Source\PSoC4/cyfitter_cfg.c **** 	(void)memset(s, 0, n);
  64:.\Generated_Source\PSoC4/cyfitter_cfg.c **** }
  65:.\Generated_Source\PSoC4/cyfitter_cfg.c **** CY_CFG_UNUSED
  66:.\Generated_Source\PSoC4/cyfitter_cfg.c **** static void CYCONFIGCPY(void *dest, const void *src, size_t n);
  67:.\Generated_Source\PSoC4/cyfitter_cfg.c **** CY_CFG_UNUSED
  68:.\Generated_Source\PSoC4/cyfitter_cfg.c **** static void CYCONFIGCPY(void *dest, const void *src, size_t n)
  69:.\Generated_Source\PSoC4/cyfitter_cfg.c **** {
  70:.\Generated_Source\PSoC4/cyfitter_cfg.c **** 	(void)memcpy(dest, src, n);
  71:.\Generated_Source\PSoC4/cyfitter_cfg.c **** }
  72:.\Generated_Source\PSoC4/cyfitter_cfg.c **** CY_CFG_UNUSED
  73:.\Generated_Source\PSoC4/cyfitter_cfg.c **** static void CYCONFIGCPYCODE(void *dest, const void *src, size_t n);
  74:.\Generated_Source\PSoC4/cyfitter_cfg.c **** CY_CFG_UNUSED
  75:.\Generated_Source\PSoC4/cyfitter_cfg.c **** static void CYCONFIGCPYCODE(void *dest, const void *src, size_t n)
  76:.\Generated_Source\PSoC4/cyfitter_cfg.c **** {
  77:.\Generated_Source\PSoC4/cyfitter_cfg.c **** 	(void)memcpy(dest, src, n);
  78:.\Generated_Source\PSoC4/cyfitter_cfg.c **** }
  79:.\Generated_Source\PSoC4/cyfitter_cfg.c **** 
  80:.\Generated_Source\PSoC4/cyfitter_cfg.c **** 
  81:.\Generated_Source\PSoC4/cyfitter_cfg.c **** 
  82:.\Generated_Source\PSoC4/cyfitter_cfg.c **** /* Clock startup error codes                                                   */
  83:.\Generated_Source\PSoC4/cyfitter_cfg.c **** #define CYCLOCKSTART_NO_ERROR    0u
  84:.\Generated_Source\PSoC4/cyfitter_cfg.c **** #define CYCLOCKSTART_XTAL_ERROR  1u
  85:.\Generated_Source\PSoC4/cyfitter_cfg.c **** #define CYCLOCKSTART_32KHZ_ERROR 2u
  86:.\Generated_Source\PSoC4/cyfitter_cfg.c **** #define CYCLOCKSTART_PLL_ERROR   3u
  87:.\Generated_Source\PSoC4/cyfitter_cfg.c **** 
  88:.\Generated_Source\PSoC4/cyfitter_cfg.c **** #ifdef CY_NEED_CYCLOCKSTARTUPERROR
  89:.\Generated_Source\PSoC4/cyfitter_cfg.c **** /*******************************************************************************
  90:.\Generated_Source\PSoC4/cyfitter_cfg.c **** * Function Name: CyClockStartupError
ARM GAS  C:\Users\Svilen\AppData\Local\Temp\ccPYKfAy.s 			page 3


  91:.\Generated_Source\PSoC4/cyfitter_cfg.c **** ********************************************************************************
  92:.\Generated_Source\PSoC4/cyfitter_cfg.c **** * Summary:
  93:.\Generated_Source\PSoC4/cyfitter_cfg.c **** *  If an error is encountered during clock configuration (crystal startup error,
  94:.\Generated_Source\PSoC4/cyfitter_cfg.c **** *  PLL lock error, etc.), the system will end up here.  Unless reimplemented by
  95:.\Generated_Source\PSoC4/cyfitter_cfg.c **** *  the customer, this function will stop in an infinite loop.
  96:.\Generated_Source\PSoC4/cyfitter_cfg.c **** *
  97:.\Generated_Source\PSoC4/cyfitter_cfg.c **** * Parameters:
  98:.\Generated_Source\PSoC4/cyfitter_cfg.c **** *   void
  99:.\Generated_Source\PSoC4/cyfitter_cfg.c **** *
 100:.\Generated_Source\PSoC4/cyfitter_cfg.c **** * Return:
 101:.\Generated_Source\PSoC4/cyfitter_cfg.c **** *   void
 102:.\Generated_Source\PSoC4/cyfitter_cfg.c **** *
 103:.\Generated_Source\PSoC4/cyfitter_cfg.c **** *******************************************************************************/
 104:.\Generated_Source\PSoC4/cyfitter_cfg.c **** CY_CFG_UNUSED
 105:.\Generated_Source\PSoC4/cyfitter_cfg.c **** static void CyClockStartupError(uint8 errorCode);
 106:.\Generated_Source\PSoC4/cyfitter_cfg.c **** CY_CFG_UNUSED
 107:.\Generated_Source\PSoC4/cyfitter_cfg.c **** static void CyClockStartupError(uint8 errorCode)
 108:.\Generated_Source\PSoC4/cyfitter_cfg.c **** {
 109:.\Generated_Source\PSoC4/cyfitter_cfg.c ****     /* To remove the compiler warning if errorCode not used.                */
 110:.\Generated_Source\PSoC4/cyfitter_cfg.c ****     errorCode = errorCode;
 111:.\Generated_Source\PSoC4/cyfitter_cfg.c **** 
 112:.\Generated_Source\PSoC4/cyfitter_cfg.c ****     /* `#START CyClockStartupError` */
 113:.\Generated_Source\PSoC4/cyfitter_cfg.c **** 
 114:.\Generated_Source\PSoC4/cyfitter_cfg.c ****     /* If we have a clock startup error (bad MHz crystal, PLL lock, etc.),  */
 115:.\Generated_Source\PSoC4/cyfitter_cfg.c ****     /* we will end up here to allow the customer to implement something to  */
 116:.\Generated_Source\PSoC4/cyfitter_cfg.c ****     /* deal with the clock condition.                                       */
 117:.\Generated_Source\PSoC4/cyfitter_cfg.c **** 
 118:.\Generated_Source\PSoC4/cyfitter_cfg.c ****     /* `#END` */
 119:.\Generated_Source\PSoC4/cyfitter_cfg.c **** 
 120:.\Generated_Source\PSoC4/cyfitter_cfg.c ****     /* If nothing else, stop here since the clocks have not started         */
 121:.\Generated_Source\PSoC4/cyfitter_cfg.c ****     /* correctly.                                                           */
 122:.\Generated_Source\PSoC4/cyfitter_cfg.c ****     while(1) {}
 123:.\Generated_Source\PSoC4/cyfitter_cfg.c **** }
 124:.\Generated_Source\PSoC4/cyfitter_cfg.c **** #endif
 125:.\Generated_Source\PSoC4/cyfitter_cfg.c **** 
 126:.\Generated_Source\PSoC4/cyfitter_cfg.c **** #define CY_CFG_BASE_ADDR_COUNT 9u
 127:.\Generated_Source\PSoC4/cyfitter_cfg.c **** CYPACKED typedef struct
 128:.\Generated_Source\PSoC4/cyfitter_cfg.c **** {
 129:.\Generated_Source\PSoC4/cyfitter_cfg.c **** 	uint8 offset;
 130:.\Generated_Source\PSoC4/cyfitter_cfg.c **** 	uint8 value;
 131:.\Generated_Source\PSoC4/cyfitter_cfg.c **** } CYPACKED_ATTR cy_cfg_addrvalue_t;
 132:.\Generated_Source\PSoC4/cyfitter_cfg.c **** 
 133:.\Generated_Source\PSoC4/cyfitter_cfg.c **** 
 134:.\Generated_Source\PSoC4/cyfitter_cfg.c **** 
 135:.\Generated_Source\PSoC4/cyfitter_cfg.c **** /*******************************************************************************
 136:.\Generated_Source\PSoC4/cyfitter_cfg.c **** * Function Name: cfg_write_bytes32
 137:.\Generated_Source\PSoC4/cyfitter_cfg.c **** ********************************************************************************
 138:.\Generated_Source\PSoC4/cyfitter_cfg.c **** * Summary:
 139:.\Generated_Source\PSoC4/cyfitter_cfg.c **** *  This function is used for setting up the chip configuration areas that
 140:.\Generated_Source\PSoC4/cyfitter_cfg.c **** *  contain relatively sparse data.
 141:.\Generated_Source\PSoC4/cyfitter_cfg.c **** *
 142:.\Generated_Source\PSoC4/cyfitter_cfg.c **** * Parameters:
 143:.\Generated_Source\PSoC4/cyfitter_cfg.c **** *   void
 144:.\Generated_Source\PSoC4/cyfitter_cfg.c **** *
 145:.\Generated_Source\PSoC4/cyfitter_cfg.c **** * Return:
 146:.\Generated_Source\PSoC4/cyfitter_cfg.c **** *   void
 147:.\Generated_Source\PSoC4/cyfitter_cfg.c **** *
ARM GAS  C:\Users\Svilen\AppData\Local\Temp\ccPYKfAy.s 			page 4


 148:.\Generated_Source\PSoC4/cyfitter_cfg.c **** *******************************************************************************/
 149:.\Generated_Source\PSoC4/cyfitter_cfg.c **** static void cfg_write_bytes32(const uint32 addr_table[], const cy_cfg_addrvalue_t data_table[]);
 150:.\Generated_Source\PSoC4/cyfitter_cfg.c **** static void cfg_write_bytes32(const uint32 addr_table[], const cy_cfg_addrvalue_t data_table[])
 151:.\Generated_Source\PSoC4/cyfitter_cfg.c **** {
  25              		.loc 1 151 0
  26              		.cfi_startproc
  27              	.LVL0:
  28 0000 F0B5     		push	{r4, r5, r6, r7, lr}
  29              		.cfi_def_cfa_offset 20
  30              		.cfi_offset 4, -20
  31              		.cfi_offset 5, -16
  32              		.cfi_offset 6, -12
  33              		.cfi_offset 7, -8
  34              		.cfi_offset 14, -4
  35              	.LVL1:
 152:.\Generated_Source\PSoC4/cyfitter_cfg.c **** 	/* For 32-bit little-endian architectures */
 153:.\Generated_Source\PSoC4/cyfitter_cfg.c **** 	uint32 i, j = 0u;
  36              		.loc 1 153 0
  37 0002 0025     		mov	r5, #0
 154:.\Generated_Source\PSoC4/cyfitter_cfg.c **** 	for (i = 0u; i < CY_CFG_BASE_ADDR_COUNT; i++)
  38              		.loc 1 154 0
  39 0004 0027     		mov	r7, #0
  40 0006 11E0     		b	.L2
  41              	.LVL2:
  42              	.L5:
  43              	.LBB2:
 155:.\Generated_Source\PSoC4/cyfitter_cfg.c **** 	{
 156:.\Generated_Source\PSoC4/cyfitter_cfg.c **** 		uint32 baseAddr = addr_table[i];
  44              		.loc 1 156 0
  45 0008 BB00     		lsl	r3, r7, #2
  46 000a C658     		ldr	r6, [r0, r3]
  47              	.LVL3:
 157:.\Generated_Source\PSoC4/cyfitter_cfg.c **** 		uint8 count = (uint8)baseAddr;
  48              		.loc 1 157 0
  49 000c F3B2     		uxtb	r3, r6
  50              	.LVL4:
 158:.\Generated_Source\PSoC4/cyfitter_cfg.c **** 		baseAddr &= 0xFFFFFF00u;
  51              		.loc 1 158 0
  52 000e FF22     		mov	r2, #255
  53 0010 9643     		bic	r6, r2
  54              	.LVL5:
 159:.\Generated_Source\PSoC4/cyfitter_cfg.c **** 		while (count != 0u)
  55              		.loc 1 159 0
  56 0012 08E0     		b	.L3
  57              	.L4:
 160:.\Generated_Source\PSoC4/cyfitter_cfg.c **** 		{
 161:.\Generated_Source\PSoC4/cyfitter_cfg.c **** 			CY_SET_XTND_REG8((void CYFAR *)(baseAddr + data_table[j].offset), data_table[j].value);
  58              		.loc 1 161 0
  59 0014 6A00     		lsl	r2, r5, #1
  60 0016 8A18     		add	r2, r1, r2
  61 0018 1478     		ldrb	r4, [r2]
  62 001a A419     		add	r4, r4, r6
  63 001c 5278     		ldrb	r2, [r2, #1]
  64 001e 2270     		strb	r2, [r4]
 162:.\Generated_Source\PSoC4/cyfitter_cfg.c **** 			j++;
  65              		.loc 1 162 0
  66 0020 0135     		add	r5, r5, #1
ARM GAS  C:\Users\Svilen\AppData\Local\Temp\ccPYKfAy.s 			page 5


  67              	.LVL6:
 163:.\Generated_Source\PSoC4/cyfitter_cfg.c **** 			count--;
  68              		.loc 1 163 0
  69 0022 013B     		sub	r3, r3, #1
  70              	.LVL7:
  71 0024 DBB2     		uxtb	r3, r3
  72              	.LVL8:
  73              	.L3:
 159:.\Generated_Source\PSoC4/cyfitter_cfg.c **** 		{
  74              		.loc 1 159 0
  75 0026 002B     		cmp	r3, #0
  76 0028 F4D1     		bne	.L4
  77              	.LBE2:
 154:.\Generated_Source\PSoC4/cyfitter_cfg.c **** 	{
  78              		.loc 1 154 0 discriminator 2
  79 002a 0137     		add	r7, r7, #1
  80              	.LVL9:
  81              	.L2:
 154:.\Generated_Source\PSoC4/cyfitter_cfg.c **** 	{
  82              		.loc 1 154 0 is_stmt 0 discriminator 1
  83 002c 082F     		cmp	r7, #8
  84 002e EBD9     		bls	.L5
 164:.\Generated_Source\PSoC4/cyfitter_cfg.c **** 		}
 165:.\Generated_Source\PSoC4/cyfitter_cfg.c **** 	}
 166:.\Generated_Source\PSoC4/cyfitter_cfg.c **** }
  85              		.loc 1 166 0 is_stmt 1
  86              		@ sp needed
  87              	.LVL10:
  88              	.LVL11:
  89 0030 F0BD     		pop	{r4, r5, r6, r7, pc}
  90              		.cfi_endproc
  91              	.LFE3:
  92              		.size	cfg_write_bytes32, .-cfg_write_bytes32
  93 0032 C046     		.section	.text.CYMEMZERO,"ax",%progbits
  94              		.align	2
  95              		.code	16
  96              		.thumb_func
  97              		.type	CYMEMZERO, %function
  98              	CYMEMZERO:
  99              	.LFB0:
  62:.\Generated_Source\PSoC4/cyfitter_cfg.c **** 	(void)memset(s, 0, n);
 100              		.loc 1 62 0
 101              		.cfi_startproc
 102              	.LVL12:
 103 0000 08B5     		push	{r3, lr}
 104              		.cfi_def_cfa_offset 8
 105              		.cfi_offset 3, -8
 106              		.cfi_offset 14, -4
 107 0002 0A1C     		mov	r2, r1
  63:.\Generated_Source\PSoC4/cyfitter_cfg.c **** }
 108              		.loc 1 63 0
 109 0004 0021     		mov	r1, #0
 110              	.LVL13:
 111 0006 FFF7FEFF 		bl	memset
 112              	.LVL14:
  64:.\Generated_Source\PSoC4/cyfitter_cfg.c **** CY_CFG_UNUSED
 113              		.loc 1 64 0
ARM GAS  C:\Users\Svilen\AppData\Local\Temp\ccPYKfAy.s 			page 6


 114              		@ sp needed
 115 000a 08BD     		pop	{r3, pc}
 116              		.cfi_endproc
 117              	.LFE0:
 118              		.size	CYMEMZERO, .-CYMEMZERO
 119              		.section	.psocinit,"ax",%progbits
 120              		.align	2
 121              		.code	16
 122              		.thumb_func
 123              		.type	ClockSetup, %function
 124              	ClockSetup:
 125              	.LFB4:
 167:.\Generated_Source\PSoC4/cyfitter_cfg.c **** 
 168:.\Generated_Source\PSoC4/cyfitter_cfg.c **** 
 169:.\Generated_Source\PSoC4/cyfitter_cfg.c **** /*******************************************************************************
 170:.\Generated_Source\PSoC4/cyfitter_cfg.c **** * Function Name: ClockSetup
 171:.\Generated_Source\PSoC4/cyfitter_cfg.c **** ********************************************************************************
 172:.\Generated_Source\PSoC4/cyfitter_cfg.c **** *
 173:.\Generated_Source\PSoC4/cyfitter_cfg.c **** * Summary:
 174:.\Generated_Source\PSoC4/cyfitter_cfg.c **** *   Performs the initialization of all of the clocks in the device based on the
 175:.\Generated_Source\PSoC4/cyfitter_cfg.c **** *   settings in the Clock tab of the DWR.  This includes enabling the requested
 176:.\Generated_Source\PSoC4/cyfitter_cfg.c **** *   clocks and setting the necessary dividers to produce the desired frequency. 
 177:.\Generated_Source\PSoC4/cyfitter_cfg.c **** *
 178:.\Generated_Source\PSoC4/cyfitter_cfg.c **** * Parameters:
 179:.\Generated_Source\PSoC4/cyfitter_cfg.c **** *   void
 180:.\Generated_Source\PSoC4/cyfitter_cfg.c **** *
 181:.\Generated_Source\PSoC4/cyfitter_cfg.c **** * Return:
 182:.\Generated_Source\PSoC4/cyfitter_cfg.c **** *   void
 183:.\Generated_Source\PSoC4/cyfitter_cfg.c **** *
 184:.\Generated_Source\PSoC4/cyfitter_cfg.c **** *******************************************************************************/
 185:.\Generated_Source\PSoC4/cyfitter_cfg.c **** static void ClockSetup(void);
 186:.\Generated_Source\PSoC4/cyfitter_cfg.c **** CY_CFG_SECTION
 187:.\Generated_Source\PSoC4/cyfitter_cfg.c **** static void ClockSetup(void)
 188:.\Generated_Source\PSoC4/cyfitter_cfg.c **** {
 126              		.loc 1 188 0
 127              		.cfi_startproc
 128 0000 38B5     		push	{r3, r4, r5, lr}
 129              		.cfi_def_cfa_offset 16
 130              		.cfi_offset 3, -16
 131              		.cfi_offset 4, -12
 132              		.cfi_offset 5, -8
 133              		.cfi_offset 14, -4
 189:.\Generated_Source\PSoC4/cyfitter_cfg.c **** 	/* Enable HALF_EN before trimming for the flash accelerator. */
 190:.\Generated_Source\PSoC4/cyfitter_cfg.c **** 	CY_SET_REG32((void CYXDATA *)(CYREG_CLK_SELECT), (CY_GET_REG32((void *)CYREG_CLK_SELECT) | 0x00040
 134              		.loc 1 190 0
 135 0002 1A4C     		ldr	r4, .L8
 136 0004 2368     		ldr	r3, [r4]
 137 0006 8022     		mov	r2, #128
 138 0008 D202     		lsl	r2, r2, #11
 139 000a 1343     		orr	r3, r2
 140 000c 2360     		str	r3, [r4]
 191:.\Generated_Source\PSoC4/cyfitter_cfg.c **** 
 192:.\Generated_Source\PSoC4/cyfitter_cfg.c **** 	/* Setup and trim IMO based on desired frequency. */
 193:.\Generated_Source\PSoC4/cyfitter_cfg.c **** 	CySysClkWriteImoFreq(24u);
 141              		.loc 1 193 0
 142 000e 1820     		mov	r0, #24
 143 0010 FFF7FEFF 		bl	CySysClkWriteImoFreq
ARM GAS  C:\Users\Svilen\AppData\Local\Temp\ccPYKfAy.s 			page 7


 144              	.LVL15:
 194:.\Generated_Source\PSoC4/cyfitter_cfg.c **** 
 195:.\Generated_Source\PSoC4/cyfitter_cfg.c **** 	/* Disable HALF_EN since it is not required at this IMO frequency. */
 196:.\Generated_Source\PSoC4/cyfitter_cfg.c **** 	CY_SET_REG32((void CYXDATA *)(CYREG_CLK_SELECT), (CY_GET_REG32((void *)CYREG_CLK_SELECT) & 0xFFFBF
 145              		.loc 1 196 0
 146 0014 2268     		ldr	r2, [r4]
 147 0016 164B     		ldr	r3, .L8+4
 148 0018 1340     		and	r3, r2
 149 001a 2360     		str	r3, [r4]
 197:.\Generated_Source\PSoC4/cyfitter_cfg.c **** 	/* CYDEV_CLK_ILO_CONFIG Starting address: CYDEV_CLK_ILO_CONFIG */
 198:.\Generated_Source\PSoC4/cyfitter_cfg.c **** 	CY_SET_XTND_REG32((void CYFAR *)(CYREG_CLK_ILO_CONFIG), 0x80000006u);
 150              		.loc 1 198 0
 151 001c 154A     		ldr	r2, .L8+8
 152 001e 164B     		ldr	r3, .L8+12
 153 0020 1A60     		str	r2, [r3]
 199:.\Generated_Source\PSoC4/cyfitter_cfg.c **** 
 200:.\Generated_Source\PSoC4/cyfitter_cfg.c **** 
 201:.\Generated_Source\PSoC4/cyfitter_cfg.c **** 	/* CYDEV_CLK_SELECT00 Starting address: CYDEV_CLK_SELECT00 */
 202:.\Generated_Source\PSoC4/cyfitter_cfg.c **** 	CY_SET_XTND_REG32((void CYFAR *)(CYREG_CLK_SELECT07), 0x00000010u);
 154              		.loc 1 202 0
 155 0022 1022     		mov	r2, #16
 156 0024 154B     		ldr	r3, .L8+16
 157 0026 1A60     		str	r2, [r3]
 203:.\Generated_Source\PSoC4/cyfitter_cfg.c **** 	CY_SET_XTND_REG32((void CYFAR *)(CYREG_CLK_SELECT13), 0x00000020u);
 158              		.loc 1 203 0
 159 0028 1032     		add	r2, r2, #16
 160 002a 154B     		ldr	r3, .L8+20
 161 002c 1A60     		str	r2, [r3]
 204:.\Generated_Source\PSoC4/cyfitter_cfg.c **** 	CY_SET_XTND_REG32((void CYFAR *)(CYREG_CLK_SELECT15), 0x00000021u);
 162              		.loc 1 204 0
 163 002e 0132     		add	r2, r2, #1
 164 0030 144B     		ldr	r3, .L8+24
 165 0032 1A60     		str	r2, [r3]
 205:.\Generated_Source\PSoC4/cyfitter_cfg.c **** 
 206:.\Generated_Source\PSoC4/cyfitter_cfg.c **** 	/* CYDEV_CLK_IMO_CONFIG Starting address: CYDEV_CLK_IMO_CONFIG */
 207:.\Generated_Source\PSoC4/cyfitter_cfg.c **** 	CY_SET_XTND_REG32((void CYFAR *)(CYREG_CLK_IMO_CONFIG), 0x82000000u);
 166              		.loc 1 207 0
 167 0034 8222     		mov	r2, #130
 168 0036 1206     		lsl	r2, r2, #24
 169 0038 134B     		ldr	r3, .L8+28
 170 003a 1A60     		str	r2, [r3]
 208:.\Generated_Source\PSoC4/cyfitter_cfg.c **** 
 209:.\Generated_Source\PSoC4/cyfitter_cfg.c **** 	/* CYDEV_CLK_SELECT Starting address: CYDEV_CLK_SELECT */
 210:.\Generated_Source\PSoC4/cyfitter_cfg.c **** 	CY_SET_XTND_REG32((void CYFAR *)(CYREG_CLK_SELECT), 0x00000000u);
 171              		.loc 1 210 0
 172 003c 0025     		mov	r5, #0
 173 003e 2560     		str	r5, [r4]
 211:.\Generated_Source\PSoC4/cyfitter_cfg.c **** 
 212:.\Generated_Source\PSoC4/cyfitter_cfg.c **** 	/* CYDEV_CLK_DIVIDER_A00 Starting address: CYDEV_CLK_DIVIDER_A00 */
 213:.\Generated_Source\PSoC4/cyfitter_cfg.c **** 	CY_SET_XTND_REG32((void CYFAR *)(CYREG_CLK_DIVIDER_A00), 0x80000007u);
 174              		.loc 1 213 0
 175 0040 124A     		ldr	r2, .L8+32
 176 0042 134B     		ldr	r3, .L8+36
 177 0044 1A60     		str	r2, [r3]
 214:.\Generated_Source\PSoC4/cyfitter_cfg.c **** 
 215:.\Generated_Source\PSoC4/cyfitter_cfg.c **** 	/* CYDEV_CLK_DIVIDER_B00 Starting address: CYDEV_CLK_DIVIDER_B00 */
 216:.\Generated_Source\PSoC4/cyfitter_cfg.c **** 	CY_SET_XTND_REG32((void CYFAR *)(CYREG_CLK_DIVIDER_B00), 0x8000002Au);
ARM GAS  C:\Users\Svilen\AppData\Local\Temp\ccPYKfAy.s 			page 8


 178              		.loc 1 216 0
 179 0046 134A     		ldr	r2, .L8+40
 180 0048 134B     		ldr	r3, .L8+44
 181 004a 1A60     		str	r2, [r3]
 217:.\Generated_Source\PSoC4/cyfitter_cfg.c **** 
 218:.\Generated_Source\PSoC4/cyfitter_cfg.c **** 	/* CYDEV_CLK_DIVIDER_A01 Starting address: CYDEV_CLK_DIVIDER_A01 */
 219:.\Generated_Source\PSoC4/cyfitter_cfg.c **** 	CY_SET_XTND_REG32((void CYFAR *)(CYREG_CLK_DIVIDER_A01), 0x800004AFu);
 182              		.loc 1 219 0
 183 004c 134A     		ldr	r2, .L8+48
 184 004e 144B     		ldr	r3, .L8+52
 185 0050 1A60     		str	r2, [r3]
 220:.\Generated_Source\PSoC4/cyfitter_cfg.c **** 
 221:.\Generated_Source\PSoC4/cyfitter_cfg.c **** 	/* CYDEV_CLK_DIVIDER_B01 Starting address: CYDEV_CLK_DIVIDER_B01 */
 222:.\Generated_Source\PSoC4/cyfitter_cfg.c **** 	CY_SET_XTND_REG32((void CYFAR *)(CYREG_CLK_DIVIDER_B01), 0xC00003E7u);
 186              		.loc 1 222 0
 187 0052 144A     		ldr	r2, .L8+56
 188 0054 144B     		ldr	r3, .L8+60
 189 0056 1A60     		str	r2, [r3]
 223:.\Generated_Source\PSoC4/cyfitter_cfg.c **** 
 224:.\Generated_Source\PSoC4/cyfitter_cfg.c **** 	(void)CyIntSetVector(9u, &CySysWdtIsr);
 190              		.loc 1 224 0
 191 0058 0920     		mov	r0, #9
 192 005a 1449     		ldr	r1, .L8+64
 193 005c FFF7FEFF 		bl	CyIntSetVector
 194              	.LVL16:
 225:.\Generated_Source\PSoC4/cyfitter_cfg.c **** 	CyIntEnable(9u);
 195              		.loc 1 225 0
 196 0060 0920     		mov	r0, #9
 197 0062 FFF7FEFF 		bl	CyIntEnable
 198              	.LVL17:
 226:.\Generated_Source\PSoC4/cyfitter_cfg.c **** 	CY_SET_XTND_REG32((void CYFAR *)(CYREG_WDT_CONFIG), 0x00000000u);
 199              		.loc 1 226 0
 200 0066 124B     		ldr	r3, .L8+68
 201 0068 1D60     		str	r5, [r3]
 227:.\Generated_Source\PSoC4/cyfitter_cfg.c **** }
 202              		.loc 1 227 0
 203              		@ sp needed
 204 006a 38BD     		pop	{r3, r4, r5, pc}
 205              	.L9:
 206              		.align	2
 207              	.L8:
 208 006c 00010B40 		.word	1074462976
 209 0070 FFFFFBFF 		.word	-262145
 210 0074 06000080 		.word	-2147483642
 211 0078 04010B40 		.word	1074462980
 212 007c 1C020240 		.word	1073873436
 213 0080 34020240 		.word	1073873460
 214 0084 3C020240 		.word	1073873468
 215 0088 08010B40 		.word	1074462984
 216 008c 07000080 		.word	-2147483641
 217 0090 00000240 		.word	1073872896
 218 0094 2A000080 		.word	-2147483606
 219 0098 40000240 		.word	1073872960
 220 009c AF040080 		.word	-2147482449
 221 00a0 04000240 		.word	1073872900
 222 00a4 E70300C0 		.word	-1073740825
 223 00a8 44000240 		.word	1073872964
ARM GAS  C:\Users\Svilen\AppData\Local\Temp\ccPYKfAy.s 			page 9


 224 00ac 00000000 		.word	CySysWdtIsr
 225 00b0 0C020B40 		.word	1074463244
 226              		.cfi_endproc
 227              	.LFE4:
 228              		.size	ClockSetup, .-ClockSetup
 229              		.section	.text.SetAnalogRoutingPumps,"ax",%progbits
 230              		.align	2
 231              		.global	SetAnalogRoutingPumps
 232              		.code	16
 233              		.thumb_func
 234              		.type	SetAnalogRoutingPumps, %function
 235              	SetAnalogRoutingPumps:
 236              	.LFB6:
 228:.\Generated_Source\PSoC4/cyfitter_cfg.c **** 
 229:.\Generated_Source\PSoC4/cyfitter_cfg.c **** 
 230:.\Generated_Source\PSoC4/cyfitter_cfg.c **** /* Analog API Functions */
 231:.\Generated_Source\PSoC4/cyfitter_cfg.c **** 
 232:.\Generated_Source\PSoC4/cyfitter_cfg.c **** 
 233:.\Generated_Source\PSoC4/cyfitter_cfg.c **** /*******************************************************************************
 234:.\Generated_Source\PSoC4/cyfitter_cfg.c **** * Function Name: AnalogSetDefault
 235:.\Generated_Source\PSoC4/cyfitter_cfg.c **** ********************************************************************************
 236:.\Generated_Source\PSoC4/cyfitter_cfg.c **** *
 237:.\Generated_Source\PSoC4/cyfitter_cfg.c **** * Summary:
 238:.\Generated_Source\PSoC4/cyfitter_cfg.c **** *  Sets up the analog portions of the chip to default values based on chip
 239:.\Generated_Source\PSoC4/cyfitter_cfg.c **** *  configuration options from the project.
 240:.\Generated_Source\PSoC4/cyfitter_cfg.c **** *
 241:.\Generated_Source\PSoC4/cyfitter_cfg.c **** * Parameters:
 242:.\Generated_Source\PSoC4/cyfitter_cfg.c **** *  void
 243:.\Generated_Source\PSoC4/cyfitter_cfg.c **** *
 244:.\Generated_Source\PSoC4/cyfitter_cfg.c **** * Return:
 245:.\Generated_Source\PSoC4/cyfitter_cfg.c **** *  void
 246:.\Generated_Source\PSoC4/cyfitter_cfg.c **** *
 247:.\Generated_Source\PSoC4/cyfitter_cfg.c **** *******************************************************************************/
 248:.\Generated_Source\PSoC4/cyfitter_cfg.c **** static void AnalogSetDefault(void);
 249:.\Generated_Source\PSoC4/cyfitter_cfg.c **** static void AnalogSetDefault(void)
 250:.\Generated_Source\PSoC4/cyfitter_cfg.c **** {
 251:.\Generated_Source\PSoC4/cyfitter_cfg.c **** 	CY_SET_XTND_REG32((void CYFAR *)CYREG_SAR_MUX_SWITCH0, 0x00040000u);
 252:.\Generated_Source\PSoC4/cyfitter_cfg.c **** 	SetAnalogRoutingPumps(1);
 253:.\Generated_Source\PSoC4/cyfitter_cfg.c **** }
 254:.\Generated_Source\PSoC4/cyfitter_cfg.c **** 
 255:.\Generated_Source\PSoC4/cyfitter_cfg.c **** 
 256:.\Generated_Source\PSoC4/cyfitter_cfg.c **** /*******************************************************************************
 257:.\Generated_Source\PSoC4/cyfitter_cfg.c **** * Function Name: SetAnalogRoutingPumps
 258:.\Generated_Source\PSoC4/cyfitter_cfg.c **** ********************************************************************************
 259:.\Generated_Source\PSoC4/cyfitter_cfg.c **** *
 260:.\Generated_Source\PSoC4/cyfitter_cfg.c **** * Summary:
 261:.\Generated_Source\PSoC4/cyfitter_cfg.c **** * Enables or disables the analog pumps feeding analog routing switches.
 262:.\Generated_Source\PSoC4/cyfitter_cfg.c **** * Intended to be called at startup, based on the Vdda system configuration;
 263:.\Generated_Source\PSoC4/cyfitter_cfg.c **** * may be called during operation when the user informs us that the Vdda voltage crossed the pump th
 264:.\Generated_Source\PSoC4/cyfitter_cfg.c **** *
 265:.\Generated_Source\PSoC4/cyfitter_cfg.c **** * Parameters:
 266:.\Generated_Source\PSoC4/cyfitter_cfg.c **** *  enabled - 1 to enable the pumps, 0 to disable the pumps
 267:.\Generated_Source\PSoC4/cyfitter_cfg.c **** *
 268:.\Generated_Source\PSoC4/cyfitter_cfg.c **** * Return:
 269:.\Generated_Source\PSoC4/cyfitter_cfg.c **** *  void
 270:.\Generated_Source\PSoC4/cyfitter_cfg.c **** *
 271:.\Generated_Source\PSoC4/cyfitter_cfg.c **** *******************************************************************************/
ARM GAS  C:\Users\Svilen\AppData\Local\Temp\ccPYKfAy.s 			page 10


 272:.\Generated_Source\PSoC4/cyfitter_cfg.c **** void SetAnalogRoutingPumps(uint8 enabled)
 273:.\Generated_Source\PSoC4/cyfitter_cfg.c **** {
 237              		.loc 1 273 0
 238              		.cfi_startproc
 239              	.LVL18:
 274:.\Generated_Source\PSoC4/cyfitter_cfg.c **** 	uint32 regValue = CY_GET_XTND_REG32((void *)(CYREG_SAR_PUMP_CTRL));
 240              		.loc 1 274 0
 241 0000 064B     		ldr	r3, .L13
 242 0002 1B68     		ldr	r3, [r3]
 243              	.LVL19:
 275:.\Generated_Source\PSoC4/cyfitter_cfg.c **** 	if (enabled != 0u)
 244              		.loc 1 275 0
 245 0004 0028     		cmp	r0, #0
 246 0006 03D0     		beq	.L11
 276:.\Generated_Source\PSoC4/cyfitter_cfg.c **** 	{
 277:.\Generated_Source\PSoC4/cyfitter_cfg.c **** 		regValue |= 0x80000000u;
 247              		.loc 1 277 0
 248 0008 8022     		mov	r2, #128
 249 000a 1206     		lsl	r2, r2, #24
 250 000c 1343     		orr	r3, r2
 251              	.LVL20:
 252 000e 01E0     		b	.L12
 253              	.L11:
 278:.\Generated_Source\PSoC4/cyfitter_cfg.c **** 	}
 279:.\Generated_Source\PSoC4/cyfitter_cfg.c **** 	else
 280:.\Generated_Source\PSoC4/cyfitter_cfg.c **** 	{
 281:.\Generated_Source\PSoC4/cyfitter_cfg.c **** 		regValue &= ~0x80000000u;
 254              		.loc 1 281 0
 255 0010 5B00     		lsl	r3, r3, #1
 256              	.LVL21:
 257 0012 5B08     		lsr	r3, r3, #1
 258              	.LVL22:
 259              	.L12:
 282:.\Generated_Source\PSoC4/cyfitter_cfg.c **** 	}
 283:.\Generated_Source\PSoC4/cyfitter_cfg.c **** 	CY_SET_XTND_REG32((void *)(CYREG_SAR_PUMP_CTRL), regValue);
 260              		.loc 1 283 0
 261 0014 014A     		ldr	r2, .L13
 262 0016 1360     		str	r3, [r2]
 284:.\Generated_Source\PSoC4/cyfitter_cfg.c **** }
 263              		.loc 1 284 0
 264              		@ sp needed
 265 0018 7047     		bx	lr
 266              	.L14:
 267 001a C046     		.align	2
 268              	.L13:
 269 001c 80031A40 		.word	1075446656
 270              		.cfi_endproc
 271              	.LFE6:
 272              		.size	SetAnalogRoutingPumps, .-SetAnalogRoutingPumps
 273              		.section	.text.AnalogSetDefault,"ax",%progbits
 274              		.align	2
 275              		.code	16
 276              		.thumb_func
 277              		.type	AnalogSetDefault, %function
 278              	AnalogSetDefault:
 279              	.LFB5:
 250:.\Generated_Source\PSoC4/cyfitter_cfg.c **** 	CY_SET_XTND_REG32((void CYFAR *)CYREG_SAR_MUX_SWITCH0, 0x00040000u);
ARM GAS  C:\Users\Svilen\AppData\Local\Temp\ccPYKfAy.s 			page 11


 280              		.loc 1 250 0
 281              		.cfi_startproc
 282 0000 08B5     		push	{r3, lr}
 283              		.cfi_def_cfa_offset 8
 284              		.cfi_offset 3, -8
 285              		.cfi_offset 14, -4
 251:.\Generated_Source\PSoC4/cyfitter_cfg.c **** 	SetAnalogRoutingPumps(1);
 286              		.loc 1 251 0
 287 0002 8022     		mov	r2, #128
 288 0004 D202     		lsl	r2, r2, #11
 289 0006 034B     		ldr	r3, .L16
 290 0008 1A60     		str	r2, [r3]
 252:.\Generated_Source\PSoC4/cyfitter_cfg.c **** }
 291              		.loc 1 252 0
 292 000a 0120     		mov	r0, #1
 293 000c FFF7FEFF 		bl	SetAnalogRoutingPumps
 294              	.LVL23:
 253:.\Generated_Source\PSoC4/cyfitter_cfg.c **** 
 295              		.loc 1 253 0
 296              		@ sp needed
 297 0010 08BD     		pop	{r3, pc}
 298              	.L17:
 299 0012 C046     		.align	2
 300              	.L16:
 301 0014 00031A40 		.word	1075446528
 302              		.cfi_endproc
 303              	.LFE5:
 304              		.size	AnalogSetDefault, .-AnalogSetDefault
 305              		.section	.psocinit
 306              		.align	2
 307              		.global	cyfitter_cfg
 308              		.code	16
 309              		.thumb_func
 310              		.type	cyfitter_cfg, %function
 311              	cyfitter_cfg:
 312              	.LFB7:
 285:.\Generated_Source\PSoC4/cyfitter_cfg.c **** 
 286:.\Generated_Source\PSoC4/cyfitter_cfg.c **** #define CY_AMUX_UNUSED CYREG_CM0_ROM_DWT
 287:.\Generated_Source\PSoC4/cyfitter_cfg.c **** 
 288:.\Generated_Source\PSoC4/cyfitter_cfg.c **** 
 289:.\Generated_Source\PSoC4/cyfitter_cfg.c **** /*******************************************************************************
 290:.\Generated_Source\PSoC4/cyfitter_cfg.c **** * Function Name: cyfitter_cfg
 291:.\Generated_Source\PSoC4/cyfitter_cfg.c **** ********************************************************************************
 292:.\Generated_Source\PSoC4/cyfitter_cfg.c **** * Summary:
 293:.\Generated_Source\PSoC4/cyfitter_cfg.c **** *  This function is called by the start-up code for the selected device. It
 294:.\Generated_Source\PSoC4/cyfitter_cfg.c **** *  performs all of the necessary device configuration based on the design
 295:.\Generated_Source\PSoC4/cyfitter_cfg.c **** *  settings.  This includes settings from the Design Wide Resources (DWR) such
 296:.\Generated_Source\PSoC4/cyfitter_cfg.c **** *  as Clocks and Pins as well as any component configuration that is necessary.
 297:.\Generated_Source\PSoC4/cyfitter_cfg.c **** *
 298:.\Generated_Source\PSoC4/cyfitter_cfg.c **** * Parameters:  
 299:.\Generated_Source\PSoC4/cyfitter_cfg.c **** *   void
 300:.\Generated_Source\PSoC4/cyfitter_cfg.c **** *
 301:.\Generated_Source\PSoC4/cyfitter_cfg.c **** * Return:
 302:.\Generated_Source\PSoC4/cyfitter_cfg.c **** *   void
 303:.\Generated_Source\PSoC4/cyfitter_cfg.c **** *
 304:.\Generated_Source\PSoC4/cyfitter_cfg.c **** *******************************************************************************/
 305:.\Generated_Source\PSoC4/cyfitter_cfg.c **** CY_CFG_SECTION
ARM GAS  C:\Users\Svilen\AppData\Local\Temp\ccPYKfAy.s 			page 12


 306:.\Generated_Source\PSoC4/cyfitter_cfg.c **** void cyfitter_cfg(void)
 307:.\Generated_Source\PSoC4/cyfitter_cfg.c **** {
 313              		.loc 1 307 0
 314              		.cfi_startproc
 315 00b4 10B5     		push	{r4, lr}
 316              		.cfi_def_cfa_offset 8
 317              		.cfi_offset 4, -8
 318              		.cfi_offset 14, -4
 308:.\Generated_Source\PSoC4/cyfitter_cfg.c **** 	/* Disable interrupts by default. Let user enable if/when they want. */
 309:.\Generated_Source\PSoC4/cyfitter_cfg.c **** 	CyGlobalIntDisable;
 319              		.loc 1 309 0
 320              	@ 309 ".\Generated_Source\PSoC4\cyfitter_cfg.c" 1
 321 00b6 72B6     		CPSID   i
 322              	@ 0 "" 2
 310:.\Generated_Source\PSoC4/cyfitter_cfg.c **** 
 311:.\Generated_Source\PSoC4/cyfitter_cfg.c **** 	/* Enable the clock in the interrupt controller for the routed interrupts */
 312:.\Generated_Source\PSoC4/cyfitter_cfg.c **** 	CY_SET_REG8((void *)CYREG_UDB_UDBIF_INT_CLK_CTL, 0x01u);
 323              		.loc 1 312 0
 324              		.code	16
 325 00b8 0122     		mov	r2, #1
 326 00ba 334B     		ldr	r3, .L21
 327 00bc 1A70     		strb	r2, [r3]
 328              	.LVL24:
 329              	.LBB3:
 313:.\Generated_Source\PSoC4/cyfitter_cfg.c **** 	{
 314:.\Generated_Source\PSoC4/cyfitter_cfg.c **** 		static const uint32 CYCODE cy_cfg_addr_table[] = {
 315:.\Generated_Source\PSoC4/cyfitter_cfg.c **** 			0x400F0001u, /* Base address: 0x400F0000 Count: 1 */
 316:.\Generated_Source\PSoC4/cyfitter_cfg.c **** 			0x400F3009u, /* Base address: 0x400F3000 Count: 9 */
 317:.\Generated_Source\PSoC4/cyfitter_cfg.c **** 			0x400F3107u, /* Base address: 0x400F3100 Count: 7 */
 318:.\Generated_Source\PSoC4/cyfitter_cfg.c **** 			0x400F3245u, /* Base address: 0x400F3200 Count: 69 */
 319:.\Generated_Source\PSoC4/cyfitter_cfg.c **** 			0x400F3327u, /* Base address: 0x400F3300 Count: 39 */
 320:.\Generated_Source\PSoC4/cyfitter_cfg.c **** 			0x400F4007u, /* Base address: 0x400F4000 Count: 7 */
 321:.\Generated_Source\PSoC4/cyfitter_cfg.c **** 			0x400F4107u, /* Base address: 0x400F4100 Count: 7 */
 322:.\Generated_Source\PSoC4/cyfitter_cfg.c **** 			0x400F4303u, /* Base address: 0x400F4300 Count: 3 */
 323:.\Generated_Source\PSoC4/cyfitter_cfg.c **** 			0x400F6002u, /* Base address: 0x400F6000 Count: 2 */
 324:.\Generated_Source\PSoC4/cyfitter_cfg.c **** 		};
 325:.\Generated_Source\PSoC4/cyfitter_cfg.c **** 
 326:.\Generated_Source\PSoC4/cyfitter_cfg.c **** 		static const cy_cfg_addrvalue_t CYCODE cy_cfg_data_table[] = {
 327:.\Generated_Source\PSoC4/cyfitter_cfg.c **** 			{0x83u, 0x0Du},
 328:.\Generated_Source\PSoC4/cyfitter_cfg.c **** 			{0x34u, 0x01u},
 329:.\Generated_Source\PSoC4/cyfitter_cfg.c **** 			{0x3Au, 0xC0u},
 330:.\Generated_Source\PSoC4/cyfitter_cfg.c **** 			{0x3Eu, 0x10u},
 331:.\Generated_Source\PSoC4/cyfitter_cfg.c **** 			{0x58u, 0x04u},
 332:.\Generated_Source\PSoC4/cyfitter_cfg.c **** 			{0x5Bu, 0x04u},
 333:.\Generated_Source\PSoC4/cyfitter_cfg.c **** 			{0x5Cu, 0x03u},
 334:.\Generated_Source\PSoC4/cyfitter_cfg.c **** 			{0x5Fu, 0x01u},
 335:.\Generated_Source\PSoC4/cyfitter_cfg.c **** 			{0xDBu, 0x04u},
 336:.\Generated_Source\PSoC4/cyfitter_cfg.c **** 			{0xDFu, 0x01u},
 337:.\Generated_Source\PSoC4/cyfitter_cfg.c **** 			{0x19u, 0x40u},
 338:.\Generated_Source\PSoC4/cyfitter_cfg.c **** 			{0x1Bu, 0x20u},
 339:.\Generated_Source\PSoC4/cyfitter_cfg.c **** 			{0x69u, 0x80u},
 340:.\Generated_Source\PSoC4/cyfitter_cfg.c **** 			{0x6Eu, 0x40u},
 341:.\Generated_Source\PSoC4/cyfitter_cfg.c **** 			{0x81u, 0x40u},
 342:.\Generated_Source\PSoC4/cyfitter_cfg.c **** 			{0x89u, 0x40u},
 343:.\Generated_Source\PSoC4/cyfitter_cfg.c **** 			{0xE2u, 0x80u},
 344:.\Generated_Source\PSoC4/cyfitter_cfg.c **** 			{0x2Eu, 0x01u},
 345:.\Generated_Source\PSoC4/cyfitter_cfg.c **** 			{0x30u, 0x01u},
ARM GAS  C:\Users\Svilen\AppData\Local\Temp\ccPYKfAy.s 			page 13


 346:.\Generated_Source\PSoC4/cyfitter_cfg.c **** 			{0x36u, 0x01u},
 347:.\Generated_Source\PSoC4/cyfitter_cfg.c **** 			{0x40u, 0x10u},
 348:.\Generated_Source\PSoC4/cyfitter_cfg.c **** 			{0x41u, 0x05u},
 349:.\Generated_Source\PSoC4/cyfitter_cfg.c **** 			{0x49u, 0xFFu},
 350:.\Generated_Source\PSoC4/cyfitter_cfg.c **** 			{0x4Au, 0xFFu},
 351:.\Generated_Source\PSoC4/cyfitter_cfg.c **** 			{0x4Bu, 0xFFu},
 352:.\Generated_Source\PSoC4/cyfitter_cfg.c **** 			{0x4Du, 0xA0u},
 353:.\Generated_Source\PSoC4/cyfitter_cfg.c **** 			{0x4Fu, 0x04u},
 354:.\Generated_Source\PSoC4/cyfitter_cfg.c **** 			{0x50u, 0x18u},
 355:.\Generated_Source\PSoC4/cyfitter_cfg.c **** 			{0x52u, 0x80u},
 356:.\Generated_Source\PSoC4/cyfitter_cfg.c **** 			{0x58u, 0x04u},
 357:.\Generated_Source\PSoC4/cyfitter_cfg.c **** 			{0x5Au, 0x04u},
 358:.\Generated_Source\PSoC4/cyfitter_cfg.c **** 			{0x5Bu, 0x04u},
 359:.\Generated_Source\PSoC4/cyfitter_cfg.c **** 			{0x5Cu, 0x01u},
 360:.\Generated_Source\PSoC4/cyfitter_cfg.c **** 			{0x5Du, 0x11u},
 361:.\Generated_Source\PSoC4/cyfitter_cfg.c **** 			{0x5Fu, 0x01u},
 362:.\Generated_Source\PSoC4/cyfitter_cfg.c **** 			{0x60u, 0x40u},
 363:.\Generated_Source\PSoC4/cyfitter_cfg.c **** 			{0x62u, 0xC0u},
 364:.\Generated_Source\PSoC4/cyfitter_cfg.c **** 			{0x64u, 0x40u},
 365:.\Generated_Source\PSoC4/cyfitter_cfg.c **** 			{0x65u, 0x40u},
 366:.\Generated_Source\PSoC4/cyfitter_cfg.c **** 			{0x66u, 0xC0u},
 367:.\Generated_Source\PSoC4/cyfitter_cfg.c **** 			{0x68u, 0xC0u},
 368:.\Generated_Source\PSoC4/cyfitter_cfg.c **** 			{0x6Au, 0xC0u},
 369:.\Generated_Source\PSoC4/cyfitter_cfg.c **** 			{0x6Cu, 0xC0u},
 370:.\Generated_Source\PSoC4/cyfitter_cfg.c **** 			{0x6Eu, 0xC0u},
 371:.\Generated_Source\PSoC4/cyfitter_cfg.c **** 			{0x82u, 0x04u},
 372:.\Generated_Source\PSoC4/cyfitter_cfg.c **** 			{0x8Eu, 0x01u},
 373:.\Generated_Source\PSoC4/cyfitter_cfg.c **** 			{0x91u, 0x02u},
 374:.\Generated_Source\PSoC4/cyfitter_cfg.c **** 			{0x92u, 0x04u},
 375:.\Generated_Source\PSoC4/cyfitter_cfg.c **** 			{0x9Bu, 0x03u},
 376:.\Generated_Source\PSoC4/cyfitter_cfg.c **** 			{0x9Eu, 0x03u},
 377:.\Generated_Source\PSoC4/cyfitter_cfg.c **** 			{0xA6u, 0x02u},
 378:.\Generated_Source\PSoC4/cyfitter_cfg.c **** 			{0xB0u, 0x02u},
 379:.\Generated_Source\PSoC4/cyfitter_cfg.c **** 			{0xB1u, 0x01u},
 380:.\Generated_Source\PSoC4/cyfitter_cfg.c **** 			{0xB2u, 0x01u},
 381:.\Generated_Source\PSoC4/cyfitter_cfg.c **** 			{0xB6u, 0x04u},
 382:.\Generated_Source\PSoC4/cyfitter_cfg.c **** 			{0xB7u, 0x02u},
 383:.\Generated_Source\PSoC4/cyfitter_cfg.c **** 			{0xBEu, 0x44u},
 384:.\Generated_Source\PSoC4/cyfitter_cfg.c **** 			{0xC0u, 0x40u},
 385:.\Generated_Source\PSoC4/cyfitter_cfg.c **** 			{0xC1u, 0x05u},
 386:.\Generated_Source\PSoC4/cyfitter_cfg.c **** 			{0xC5u, 0xD1u},
 387:.\Generated_Source\PSoC4/cyfitter_cfg.c **** 			{0xC7u, 0x20u},
 388:.\Generated_Source\PSoC4/cyfitter_cfg.c **** 			{0xC8u, 0x23u},
 389:.\Generated_Source\PSoC4/cyfitter_cfg.c **** 			{0xC9u, 0xFFu},
 390:.\Generated_Source\PSoC4/cyfitter_cfg.c **** 			{0xCAu, 0xFFu},
 391:.\Generated_Source\PSoC4/cyfitter_cfg.c **** 			{0xCBu, 0xFFu},
 392:.\Generated_Source\PSoC4/cyfitter_cfg.c **** 			{0xCDu, 0xAFu},
 393:.\Generated_Source\PSoC4/cyfitter_cfg.c **** 			{0xCEu, 0x0Fu},
 394:.\Generated_Source\PSoC4/cyfitter_cfg.c **** 			{0xCFu, 0x04u},
 395:.\Generated_Source\PSoC4/cyfitter_cfg.c **** 			{0xD0u, 0x18u},
 396:.\Generated_Source\PSoC4/cyfitter_cfg.c **** 			{0xD4u, 0x05u},
 397:.\Generated_Source\PSoC4/cyfitter_cfg.c **** 			{0xD8u, 0x04u},
 398:.\Generated_Source\PSoC4/cyfitter_cfg.c **** 			{0xD9u, 0x04u},
 399:.\Generated_Source\PSoC4/cyfitter_cfg.c **** 			{0xDAu, 0x04u},
 400:.\Generated_Source\PSoC4/cyfitter_cfg.c **** 			{0xDBu, 0x04u},
 401:.\Generated_Source\PSoC4/cyfitter_cfg.c **** 			{0xDCu, 0x11u},
 402:.\Generated_Source\PSoC4/cyfitter_cfg.c **** 			{0xDDu, 0x11u},
ARM GAS  C:\Users\Svilen\AppData\Local\Temp\ccPYKfAy.s 			page 14


 403:.\Generated_Source\PSoC4/cyfitter_cfg.c **** 			{0xDFu, 0x01u},
 404:.\Generated_Source\PSoC4/cyfitter_cfg.c **** 			{0xE0u, 0x40u},
 405:.\Generated_Source\PSoC4/cyfitter_cfg.c **** 			{0xE2u, 0xC0u},
 406:.\Generated_Source\PSoC4/cyfitter_cfg.c **** 			{0xE4u, 0x40u},
 407:.\Generated_Source\PSoC4/cyfitter_cfg.c **** 			{0xE5u, 0x40u},
 408:.\Generated_Source\PSoC4/cyfitter_cfg.c **** 			{0xE6u, 0xC0u},
 409:.\Generated_Source\PSoC4/cyfitter_cfg.c **** 			{0xE8u, 0xC0u},
 410:.\Generated_Source\PSoC4/cyfitter_cfg.c **** 			{0xEAu, 0xC0u},
 411:.\Generated_Source\PSoC4/cyfitter_cfg.c **** 			{0xECu, 0xC0u},
 412:.\Generated_Source\PSoC4/cyfitter_cfg.c **** 			{0xEEu, 0xC0u},
 413:.\Generated_Source\PSoC4/cyfitter_cfg.c **** 			{0x00u, 0x02u},
 414:.\Generated_Source\PSoC4/cyfitter_cfg.c **** 			{0x02u, 0x02u},
 415:.\Generated_Source\PSoC4/cyfitter_cfg.c **** 			{0x09u, 0x80u},
 416:.\Generated_Source\PSoC4/cyfitter_cfg.c **** 			{0x0Au, 0x40u},
 417:.\Generated_Source\PSoC4/cyfitter_cfg.c **** 			{0x10u, 0x20u},
 418:.\Generated_Source\PSoC4/cyfitter_cfg.c **** 			{0x17u, 0x80u},
 419:.\Generated_Source\PSoC4/cyfitter_cfg.c **** 			{0x19u, 0x04u},
 420:.\Generated_Source\PSoC4/cyfitter_cfg.c **** 			{0x1Au, 0x40u},
 421:.\Generated_Source\PSoC4/cyfitter_cfg.c **** 			{0x1Bu, 0x40u},
 422:.\Generated_Source\PSoC4/cyfitter_cfg.c **** 			{0x1Cu, 0x40u},
 423:.\Generated_Source\PSoC4/cyfitter_cfg.c **** 			{0x1Du, 0x80u},
 424:.\Generated_Source\PSoC4/cyfitter_cfg.c **** 			{0x21u, 0x02u},
 425:.\Generated_Source\PSoC4/cyfitter_cfg.c **** 			{0x22u, 0x40u},
 426:.\Generated_Source\PSoC4/cyfitter_cfg.c **** 			{0x30u, 0x20u},
 427:.\Generated_Source\PSoC4/cyfitter_cfg.c **** 			{0x31u, 0x02u},
 428:.\Generated_Source\PSoC4/cyfitter_cfg.c **** 			{0x40u, 0x40u},
 429:.\Generated_Source\PSoC4/cyfitter_cfg.c **** 			{0x45u, 0x80u},
 430:.\Generated_Source\PSoC4/cyfitter_cfg.c **** 			{0x48u, 0x20u},
 431:.\Generated_Source\PSoC4/cyfitter_cfg.c **** 			{0x49u, 0x01u},
 432:.\Generated_Source\PSoC4/cyfitter_cfg.c **** 			{0x4Au, 0x02u},
 433:.\Generated_Source\PSoC4/cyfitter_cfg.c **** 			{0x4Eu, 0x02u},
 434:.\Generated_Source\PSoC4/cyfitter_cfg.c **** 			{0x52u, 0x02u},
 435:.\Generated_Source\PSoC4/cyfitter_cfg.c **** 			{0x59u, 0x05u},
 436:.\Generated_Source\PSoC4/cyfitter_cfg.c **** 			{0x5Au, 0x80u},
 437:.\Generated_Source\PSoC4/cyfitter_cfg.c **** 			{0x68u, 0x01u},
 438:.\Generated_Source\PSoC4/cyfitter_cfg.c **** 			{0x77u, 0x80u},
 439:.\Generated_Source\PSoC4/cyfitter_cfg.c **** 			{0x83u, 0x40u},
 440:.\Generated_Source\PSoC4/cyfitter_cfg.c **** 			{0xB6u, 0x40u},
 441:.\Generated_Source\PSoC4/cyfitter_cfg.c **** 			{0xB7u, 0x20u},
 442:.\Generated_Source\PSoC4/cyfitter_cfg.c **** 			{0xC0u, 0x09u},
 443:.\Generated_Source\PSoC4/cyfitter_cfg.c **** 			{0xC2u, 0x09u},
 444:.\Generated_Source\PSoC4/cyfitter_cfg.c **** 			{0xC4u, 0x84u},
 445:.\Generated_Source\PSoC4/cyfitter_cfg.c **** 			{0xCCu, 0x05u},
 446:.\Generated_Source\PSoC4/cyfitter_cfg.c **** 			{0xD0u, 0x11u},
 447:.\Generated_Source\PSoC4/cyfitter_cfg.c **** 			{0xD2u, 0x18u},
 448:.\Generated_Source\PSoC4/cyfitter_cfg.c **** 			{0xD6u, 0x0Bu},
 449:.\Generated_Source\PSoC4/cyfitter_cfg.c **** 			{0xE0u, 0x04u},
 450:.\Generated_Source\PSoC4/cyfitter_cfg.c **** 			{0xEAu, 0x40u},
 451:.\Generated_Source\PSoC4/cyfitter_cfg.c **** 			{0xEEu, 0x40u},
 452:.\Generated_Source\PSoC4/cyfitter_cfg.c **** 			{0x57u, 0x80u},
 453:.\Generated_Source\PSoC4/cyfitter_cfg.c **** 			{0x6Du, 0x10u},
 454:.\Generated_Source\PSoC4/cyfitter_cfg.c **** 			{0x81u, 0x10u},
 455:.\Generated_Source\PSoC4/cyfitter_cfg.c **** 			{0x89u, 0x10u},
 456:.\Generated_Source\PSoC4/cyfitter_cfg.c **** 			{0xD4u, 0x40u},
 457:.\Generated_Source\PSoC4/cyfitter_cfg.c **** 			{0xDAu, 0x80u},
 458:.\Generated_Source\PSoC4/cyfitter_cfg.c **** 			{0xE2u, 0x80u},
 459:.\Generated_Source\PSoC4/cyfitter_cfg.c **** 			{0x50u, 0x02u},
ARM GAS  C:\Users\Svilen\AppData\Local\Temp\ccPYKfAy.s 			page 15


 460:.\Generated_Source\PSoC4/cyfitter_cfg.c **** 			{0x55u, 0x10u},
 461:.\Generated_Source\PSoC4/cyfitter_cfg.c **** 			{0xA0u, 0x02u},
 462:.\Generated_Source\PSoC4/cyfitter_cfg.c **** 			{0xA1u, 0x10u},
 463:.\Generated_Source\PSoC4/cyfitter_cfg.c **** 			{0xB4u, 0x02u},
 464:.\Generated_Source\PSoC4/cyfitter_cfg.c **** 			{0xB7u, 0x80u},
 465:.\Generated_Source\PSoC4/cyfitter_cfg.c **** 			{0xD4u, 0xC0u},
 466:.\Generated_Source\PSoC4/cyfitter_cfg.c **** 			{0x53u, 0x02u},
 467:.\Generated_Source\PSoC4/cyfitter_cfg.c **** 			{0x83u, 0x02u},
 468:.\Generated_Source\PSoC4/cyfitter_cfg.c **** 			{0xD4u, 0x01u},
 469:.\Generated_Source\PSoC4/cyfitter_cfg.c **** 			{0x01u, 0x0Au},
 470:.\Generated_Source\PSoC4/cyfitter_cfg.c **** 			{0x10u, 0x0Au},
 471:.\Generated_Source\PSoC4/cyfitter_cfg.c **** 		};
 472:.\Generated_Source\PSoC4/cyfitter_cfg.c **** 
 473:.\Generated_Source\PSoC4/cyfitter_cfg.c **** 
 474:.\Generated_Source\PSoC4/cyfitter_cfg.c **** 
 475:.\Generated_Source\PSoC4/cyfitter_cfg.c **** 		CYPACKED typedef struct {
 476:.\Generated_Source\PSoC4/cyfitter_cfg.c **** 			void CYFAR *address;
 477:.\Generated_Source\PSoC4/cyfitter_cfg.c **** 			uint16 size;
 478:.\Generated_Source\PSoC4/cyfitter_cfg.c **** 		} CYPACKED_ATTR cfg_memset_t;
 479:.\Generated_Source\PSoC4/cyfitter_cfg.c **** 
 480:.\Generated_Source\PSoC4/cyfitter_cfg.c **** 		static const cfg_memset_t CYCODE cfg_memset_list [] = {
 481:.\Generated_Source\PSoC4/cyfitter_cfg.c **** 			/* address, size */
 482:.\Generated_Source\PSoC4/cyfitter_cfg.c **** 			{(void CYFAR *)(CYDEV_UDB_P0_U0_BASE), 1024u},
 483:.\Generated_Source\PSoC4/cyfitter_cfg.c **** 			{(void CYFAR *)(CYDEV_UDB_DSI0_BASE), 1024u},
 484:.\Generated_Source\PSoC4/cyfitter_cfg.c **** 		};
 485:.\Generated_Source\PSoC4/cyfitter_cfg.c **** 
 486:.\Generated_Source\PSoC4/cyfitter_cfg.c **** 		uint8 CYDATA i;
 487:.\Generated_Source\PSoC4/cyfitter_cfg.c **** 
 488:.\Generated_Source\PSoC4/cyfitter_cfg.c **** 		/* Zero out critical memory blocks before beginning configuration */
 489:.\Generated_Source\PSoC4/cyfitter_cfg.c **** 		for (i = 0u; i < (sizeof(cfg_memset_list)/sizeof(cfg_memset_list[0])); i++)
 330              		.loc 1 489 0
 331 00be 0024     		mov	r4, #0
 332 00c0 10E0     		b	.L19
 333              	.LVL25:
 334              	.L20:
 335              	.LBB4:
 490:.\Generated_Source\PSoC4/cyfitter_cfg.c **** 		{
 491:.\Generated_Source\PSoC4/cyfitter_cfg.c **** 			const cfg_memset_t CYCODE * CYDATA ms = &cfg_memset_list[i];
 492:.\Generated_Source\PSoC4/cyfitter_cfg.c **** 			CYMEMZERO(ms->address, (size_t)(uint32)(ms->size));
 336              		.loc 1 492 0 discriminator 3
 337 00c2 3248     		ldr	r0, .L21+4
 338 00c4 6300     		lsl	r3, r4, #1
 339 00c6 1A19     		add	r2, r3, r4
 340 00c8 5200     		lsl	r2, r2, #1
 341 00ca 8218     		add	r2, r0, r2
 342 00cc 9188     		ldrh	r1, [r2, #4]
 343 00ce 1B19     		add	r3, r3, r4
 344 00d0 5B00     		lsl	r3, r3, #1
 345 00d2 1A5A     		ldrh	r2, [r3, r0]
 346 00d4 C318     		add	r3, r0, r3
 347 00d6 5888     		ldrh	r0, [r3, #2]
 348 00d8 0004     		lsl	r0, r0, #16
 349 00da 1043     		orr	r0, r2
 350 00dc FFF7FEFF 		bl	CYMEMZERO
 351              	.LVL26:
 352              	.LBE4:
 489:.\Generated_Source\PSoC4/cyfitter_cfg.c **** 		{
ARM GAS  C:\Users\Svilen\AppData\Local\Temp\ccPYKfAy.s 			page 16


 353              		.loc 1 489 0 discriminator 3
 354 00e0 0134     		add	r4, r4, #1
 355              	.LVL27:
 356 00e2 E4B2     		uxtb	r4, r4
 357              	.LVL28:
 358              	.L19:
 489:.\Generated_Source\PSoC4/cyfitter_cfg.c **** 		{
 359              		.loc 1 489 0 is_stmt 0 discriminator 1
 360 00e4 012C     		cmp	r4, #1
 361 00e6 ECD9     		bls	.L20
 493:.\Generated_Source\PSoC4/cyfitter_cfg.c **** 		}
 494:.\Generated_Source\PSoC4/cyfitter_cfg.c **** 
 495:.\Generated_Source\PSoC4/cyfitter_cfg.c **** 		cfg_write_bytes32(cy_cfg_addr_table, cy_cfg_data_table);
 362              		.loc 1 495 0 is_stmt 1
 363 00e8 2849     		ldr	r1, .L21+4
 364 00ea 081C     		mov	r0, r1
 365 00ec 0C30     		add	r0, r0, #12
 366 00ee 3031     		add	r1, r1, #48
 367 00f0 FFF7FEFF 		bl	cfg_write_bytes32
 368              	.LVL29:
 496:.\Generated_Source\PSoC4/cyfitter_cfg.c **** 
 497:.\Generated_Source\PSoC4/cyfitter_cfg.c **** 		/* HSIOM Starting address: CYDEV_HSIOM_BASE */
 498:.\Generated_Source\PSoC4/cyfitter_cfg.c **** 		CY_SET_XTND_REG32((void CYFAR *)(CYDEV_HSIOM_BASE), 0x00006000u);
 369              		.loc 1 498 0
 370 00f4 C022     		mov	r2, #192
 371 00f6 D201     		lsl	r2, r2, #7
 372 00f8 254B     		ldr	r3, .L21+8
 373 00fa 1A60     		str	r2, [r3]
 499:.\Generated_Source\PSoC4/cyfitter_cfg.c **** 		CY_SET_XTND_REG32((void CYFAR *)(CYREG_HSIOM_PORT_SEL1), 0x00000033u);
 374              		.loc 1 499 0
 375 00fc 3322     		mov	r2, #51
 376 00fe 254B     		ldr	r3, .L21+12
 377 0100 1A60     		str	r2, [r3]
 500:.\Generated_Source\PSoC4/cyfitter_cfg.c **** 		CY_SET_XTND_REG32((void CYFAR *)(CYREG_HSIOM_PORT_SEL3), 0x0000EE30u);
 378              		.loc 1 500 0
 379 0102 254A     		ldr	r2, .L21+16
 380 0104 254B     		ldr	r3, .L21+20
 381 0106 1A60     		str	r2, [r3]
 501:.\Generated_Source\PSoC4/cyfitter_cfg.c **** 
 502:.\Generated_Source\PSoC4/cyfitter_cfg.c **** 		/* UDB_PA_0 Starting address: CYDEV_UDB_PA0_BASE */
 503:.\Generated_Source\PSoC4/cyfitter_cfg.c **** 		CY_SET_XTND_REG32((void CYFAR *)(CYDEV_UDB_PA0_BASE), 0x00990000u);
 382              		.loc 1 503 0
 383 0108 9923     		mov	r3, #153
 384 010a 1B04     		lsl	r3, r3, #16
 385 010c 244A     		ldr	r2, .L21+24
 386 010e 1360     		str	r3, [r2]
 504:.\Generated_Source\PSoC4/cyfitter_cfg.c **** 		CY_SET_XTND_REG32((void CYFAR *)(CYREG_UDB_PA0_CFG8), 0x00400000u);
 387              		.loc 1 504 0
 388 0110 8021     		mov	r1, #128
 389 0112 C903     		lsl	r1, r1, #15
 390 0114 234A     		ldr	r2, .L21+28
 391 0116 1160     		str	r1, [r2]
 505:.\Generated_Source\PSoC4/cyfitter_cfg.c **** 
 506:.\Generated_Source\PSoC4/cyfitter_cfg.c **** 		/* UDB_PA_1 Starting address: CYDEV_UDB_PA1_BASE */
 507:.\Generated_Source\PSoC4/cyfitter_cfg.c **** 		CY_SET_XTND_REG32((void CYFAR *)(CYDEV_UDB_PA1_BASE), 0x00990000u);
 392              		.loc 1 507 0
 393 0118 234A     		ldr	r2, .L21+32
ARM GAS  C:\Users\Svilen\AppData\Local\Temp\ccPYKfAy.s 			page 17


 394 011a 1360     		str	r3, [r2]
 508:.\Generated_Source\PSoC4/cyfitter_cfg.c **** 		CY_SET_XTND_REG32((void CYFAR *)(CYREG_UDB_PA1_CFG8), 0x00090000u);
 395              		.loc 1 508 0
 396 011c 9021     		mov	r1, #144
 397 011e 0903     		lsl	r1, r1, #12
 398 0120 224A     		ldr	r2, .L21+36
 399 0122 1160     		str	r1, [r2]
 509:.\Generated_Source\PSoC4/cyfitter_cfg.c **** 
 510:.\Generated_Source\PSoC4/cyfitter_cfg.c **** 		/* UDB_PA_3 Starting address: CYDEV_UDB_PA3_BASE */
 511:.\Generated_Source\PSoC4/cyfitter_cfg.c **** 		CY_SET_XTND_REG32((void CYFAR *)(CYDEV_UDB_PA3_BASE), 0x00990000u);
 400              		.loc 1 511 0
 401 0124 224A     		ldr	r2, .L21+40
 402 0126 1360     		str	r3, [r2]
 512:.\Generated_Source\PSoC4/cyfitter_cfg.c **** 		CY_SET_XTND_REG32((void CYFAR *)(CYREG_UDB_PA3_CFG8), 0x00080000u);
 403              		.loc 1 512 0
 404 0128 8022     		mov	r2, #128
 405 012a 1203     		lsl	r2, r2, #12
 406 012c 214B     		ldr	r3, .L21+44
 407 012e 1A60     		str	r2, [r3]
 513:.\Generated_Source\PSoC4/cyfitter_cfg.c **** 
 514:.\Generated_Source\PSoC4/cyfitter_cfg.c **** 		/* INT_SELECT Starting address: CYDEV_CPUSS_INTR_SELECT */
 515:.\Generated_Source\PSoC4/cyfitter_cfg.c **** 		CY_SET_XTND_REG32((void CYFAR *)(CYREG_CPUSS_INTR_SELECT), 0x00000001u);
 408              		.loc 1 515 0
 409 0130 0122     		mov	r2, #1
 410 0132 214B     		ldr	r3, .L21+48
 411 0134 1A60     		str	r2, [r3]
 516:.\Generated_Source\PSoC4/cyfitter_cfg.c **** 
 517:.\Generated_Source\PSoC4/cyfitter_cfg.c **** 		/* INT_CONFIG Starting address: CYDEV_UDB_INT_CFG */
 518:.\Generated_Source\PSoC4/cyfitter_cfg.c **** 		CY_SET_XTND_REG32((void CYFAR *)(CYREG_UDB_INT_CFG), 0x00000002u);
 412              		.loc 1 518 0
 413 0136 0220     		mov	r0, #2
 414 0138 204B     		ldr	r3, .L21+52
 415 013a 1860     		str	r0, [r3]
 519:.\Generated_Source\PSoC4/cyfitter_cfg.c **** 
 520:.\Generated_Source\PSoC4/cyfitter_cfg.c **** 		/* Enable digital routing */
 521:.\Generated_Source\PSoC4/cyfitter_cfg.c **** 		CY_SET_XTND_REG8((void *)CYREG_UDB_UDBIF_BANK_CTL, CY_GET_XTND_REG8((void *)CYREG_UDB_UDBIF_BANK_
 416              		.loc 1 521 0
 417 013c 204B     		ldr	r3, .L21+56
 418 013e 1978     		ldrb	r1, [r3]
 419 0140 0132     		add	r2, r2, #1
 420 0142 0A43     		orr	r2, r1
 421 0144 1A70     		strb	r2, [r3]
 522:.\Generated_Source\PSoC4/cyfitter_cfg.c **** 
 523:.\Generated_Source\PSoC4/cyfitter_cfg.c **** 		/* Enable UDB array */
 524:.\Generated_Source\PSoC4/cyfitter_cfg.c **** 		CY_SET_XTND_REG8((void *)CYREG_UDB_UDBIF_WAIT_CFG, (uint8)((CY_GET_XTND_REG8((void *)CYREG_UDB_UD
 422              		.loc 1 524 0
 423 0146 1F4C     		ldr	r4, .L21+60
 424              	.LVL30:
 425 0148 2278     		ldrb	r2, [r4]
 426 014a 3C21     		mov	r1, #60
 427 014c 8A43     		bic	r2, r1
 428 014e 2839     		sub	r1, r1, #40
 429 0150 0A43     		orr	r2, r1
 430 0152 2270     		strb	r2, [r4]
 525:.\Generated_Source\PSoC4/cyfitter_cfg.c **** 		CY_SET_XTND_REG8((void *)CYREG_UDB_UDBIF_BANK_CTL, (uint8)(CY_GET_XTND_REG8((void *)CYREG_UDB_UDB
 431              		.loc 1 525 0
 432 0154 1978     		ldrb	r1, [r3]
ARM GAS  C:\Users\Svilen\AppData\Local\Temp\ccPYKfAy.s 			page 18


 433 0156 1622     		mov	r2, #22
 434 0158 0A43     		orr	r2, r1
 435 015a 1A70     		strb	r2, [r3]
 436              	.LBE3:
 526:.\Generated_Source\PSoC4/cyfitter_cfg.c **** 	}
 527:.\Generated_Source\PSoC4/cyfitter_cfg.c **** 
 528:.\Generated_Source\PSoC4/cyfitter_cfg.c **** 	/* Perform second pass device configuration. These items must be configured in specific order afte
 529:.\Generated_Source\PSoC4/cyfitter_cfg.c **** 	/* IOPINS0_0 Starting address: CYDEV_PRT0_BASE */
 530:.\Generated_Source\PSoC4/cyfitter_cfg.c **** 	CY_SET_XTND_REG32((void CYFAR *)(CYDEV_PRT0_BASE), 0x00000008u);
 437              		.loc 1 530 0
 438 015c 0823     		mov	r3, #8
 439 015e 1A4A     		ldr	r2, .L21+64
 440 0160 1360     		str	r3, [r2]
 531:.\Generated_Source\PSoC4/cyfitter_cfg.c **** 	CY_SET_XTND_REG32((void CYFAR *)(CYREG_PRT0_PC2), 0x00000008u);
 441              		.loc 1 531 0
 442 0162 1A4A     		ldr	r2, .L21+68
 443 0164 1360     		str	r3, [r2]
 532:.\Generated_Source\PSoC4/cyfitter_cfg.c **** 
 533:.\Generated_Source\PSoC4/cyfitter_cfg.c **** 	/* IOPINS0_1 Starting address: CYDEV_PRT1_BASE */
 534:.\Generated_Source\PSoC4/cyfitter_cfg.c **** 	CY_SET_XTND_REG32((void CYFAR *)(CYDEV_PRT1_BASE), 0x00000003u);
 444              		.loc 1 534 0
 445 0166 0322     		mov	r2, #3
 446 0168 194B     		ldr	r3, .L21+72
 447 016a 1A60     		str	r2, [r3]
 535:.\Generated_Source\PSoC4/cyfitter_cfg.c **** 	CY_SET_XTND_REG32((void CYFAR *)(CYREG_PRT1_PC), 0x00000036u);
 448              		.loc 1 535 0
 449 016c 3332     		add	r2, r2, #51
 450 016e 194B     		ldr	r3, .L21+76
 451 0170 1A60     		str	r2, [r3]
 536:.\Generated_Source\PSoC4/cyfitter_cfg.c **** 
 537:.\Generated_Source\PSoC4/cyfitter_cfg.c **** 	/* IOPINS0_3 Starting address: CYDEV_PRT3_BASE */
 538:.\Generated_Source\PSoC4/cyfitter_cfg.c **** 	CY_SET_XTND_REG32((void CYFAR *)(CYDEV_PRT3_BASE), 0x00000002u);
 452              		.loc 1 538 0
 453 0172 194B     		ldr	r3, .L21+80
 454 0174 1860     		str	r0, [r3]
 539:.\Generated_Source\PSoC4/cyfitter_cfg.c **** 	CY_SET_XTND_REG32((void CYFAR *)(CYREG_PRT3_PC), 0x00000DB0u);
 455              		.loc 1 539 0
 456 0176 DB22     		mov	r2, #219
 457 0178 1201     		lsl	r2, r2, #4
 458 017a 184B     		ldr	r3, .L21+84
 459 017c 1A60     		str	r2, [r3]
 540:.\Generated_Source\PSoC4/cyfitter_cfg.c **** 
 541:.\Generated_Source\PSoC4/cyfitter_cfg.c **** 
 542:.\Generated_Source\PSoC4/cyfitter_cfg.c **** 	/* Setup clocks based on selections from Clock DWR */
 543:.\Generated_Source\PSoC4/cyfitter_cfg.c **** 	ClockSetup();
 460              		.loc 1 543 0
 461 017e FFF73FFF 		bl	ClockSetup
 462              	.LVL31:
 544:.\Generated_Source\PSoC4/cyfitter_cfg.c **** 
 545:.\Generated_Source\PSoC4/cyfitter_cfg.c **** 	/* Perform basic analog initialization to defaults */
 546:.\Generated_Source\PSoC4/cyfitter_cfg.c **** 	AnalogSetDefault();
 463              		.loc 1 546 0
 464 0182 FFF7FEFF 		bl	AnalogSetDefault
 465              	.LVL32:
 547:.\Generated_Source\PSoC4/cyfitter_cfg.c **** 
 548:.\Generated_Source\PSoC4/cyfitter_cfg.c **** }
 466              		.loc 1 548 0
ARM GAS  C:\Users\Svilen\AppData\Local\Temp\ccPYKfAy.s 			page 19


 467              		@ sp needed
 468 0186 10BD     		pop	{r4, pc}
 469              	.L22:
 470              		.align	2
 471              	.L21:
 472 0188 1C700F40 		.word	1074753564
 473 018c 00000000 		.word	.LANCHOR0
 474 0190 00000140 		.word	1073807360
 475 0194 04000140 		.word	1073807364
 476 0198 30EE0000 		.word	60976
 477 019c 0C000140 		.word	1073807372
 478 01a0 00500F40 		.word	1074745344
 479 01a4 08500F40 		.word	1074745352
 480 01a8 10500F40 		.word	1074745360
 481 01ac 18500F40 		.word	1074745368
 482 01b0 30500F40 		.word	1074745392
 483 01b4 38500F40 		.word	1074745400
 484 01b8 20000040 		.word	1073741856
 485 01bc 00800F40 		.word	1074757632
 486 01c0 00700F40 		.word	1074753536
 487 01c4 01700F40 		.word	1074753537
 488 01c8 00000440 		.word	1074003968
 489 01cc 18000440 		.word	1074003992
 490 01d0 00010440 		.word	1074004224
 491 01d4 08010440 		.word	1074004232
 492 01d8 00030440 		.word	1074004736
 493 01dc 08030440 		.word	1074004744
 494              		.cfi_endproc
 495              	.LFE7:
 496              		.size	cyfitter_cfg, .-cyfitter_cfg
 497              		.section	.rodata
 498              		.align	2
 499              		.set	.LANCHOR0,. + 0
 500              		.type	cfg_memset_list.4752, %object
 501              		.size	cfg_memset_list.4752, 12
 502              	cfg_memset_list.4752:
 503 0000 00300F40 		.word	1074737152
 504 0004 0004     		.short	1024
 505 0006 00400F40 		.4byte	1074741248
 506 000a 0004     		.short	1024
 507              		.type	cy_cfg_addr_table.4746, %object
 508              		.size	cy_cfg_addr_table.4746, 36
 509              	cy_cfg_addr_table.4746:
 510 000c 01000F40 		.word	1074724865
 511 0010 09300F40 		.word	1074737161
 512 0014 07310F40 		.word	1074737415
 513 0018 45320F40 		.word	1074737733
 514 001c 27330F40 		.word	1074737959
 515 0020 07400F40 		.word	1074741255
 516 0024 07410F40 		.word	1074741511
 517 0028 03430F40 		.word	1074742019
 518 002c 02600F40 		.word	1074749442
 519              		.type	cy_cfg_data_table.4747, %object
 520              		.size	cy_cfg_data_table.4747, 288
 521              	cy_cfg_data_table.4747:
 522 0030 83       		.byte	-125
 523 0031 0D       		.byte	13
ARM GAS  C:\Users\Svilen\AppData\Local\Temp\ccPYKfAy.s 			page 20


 524 0032 34       		.byte	52
 525 0033 01       		.byte	1
 526 0034 3A       		.byte	58
 527 0035 C0       		.byte	-64
 528 0036 3E       		.byte	62
 529 0037 10       		.byte	16
 530 0038 58       		.byte	88
 531 0039 04       		.byte	4
 532 003a 5B       		.byte	91
 533 003b 04       		.byte	4
 534 003c 5C       		.byte	92
 535 003d 03       		.byte	3
 536 003e 5F       		.byte	95
 537 003f 01       		.byte	1
 538 0040 DB       		.byte	-37
 539 0041 04       		.byte	4
 540 0042 DF       		.byte	-33
 541 0043 01       		.byte	1
 542 0044 19       		.byte	25
 543 0045 40       		.byte	64
 544 0046 1B       		.byte	27
 545 0047 20       		.byte	32
 546 0048 69       		.byte	105
 547 0049 80       		.byte	-128
 548 004a 6E       		.byte	110
 549 004b 40       		.byte	64
 550 004c 81       		.byte	-127
 551 004d 40       		.byte	64
 552 004e 89       		.byte	-119
 553 004f 40       		.byte	64
 554 0050 E2       		.byte	-30
 555 0051 80       		.byte	-128
 556 0052 2E       		.byte	46
 557 0053 01       		.byte	1
 558 0054 30       		.byte	48
 559 0055 01       		.byte	1
 560 0056 36       		.byte	54
 561 0057 01       		.byte	1
 562 0058 40       		.byte	64
 563 0059 10       		.byte	16
 564 005a 41       		.byte	65
 565 005b 05       		.byte	5
 566 005c 49       		.byte	73
 567 005d FF       		.byte	-1
 568 005e 4A       		.byte	74
 569 005f FF       		.byte	-1
 570 0060 4B       		.byte	75
 571 0061 FF       		.byte	-1
 572 0062 4D       		.byte	77
 573 0063 A0       		.byte	-96
 574 0064 4F       		.byte	79
 575 0065 04       		.byte	4
 576 0066 50       		.byte	80
 577 0067 18       		.byte	24
 578 0068 52       		.byte	82
 579 0069 80       		.byte	-128
 580 006a 58       		.byte	88
ARM GAS  C:\Users\Svilen\AppData\Local\Temp\ccPYKfAy.s 			page 21


 581 006b 04       		.byte	4
 582 006c 5A       		.byte	90
 583 006d 04       		.byte	4
 584 006e 5B       		.byte	91
 585 006f 04       		.byte	4
 586 0070 5C       		.byte	92
 587 0071 01       		.byte	1
 588 0072 5D       		.byte	93
 589 0073 11       		.byte	17
 590 0074 5F       		.byte	95
 591 0075 01       		.byte	1
 592 0076 60       		.byte	96
 593 0077 40       		.byte	64
 594 0078 62       		.byte	98
 595 0079 C0       		.byte	-64
 596 007a 64       		.byte	100
 597 007b 40       		.byte	64
 598 007c 65       		.byte	101
 599 007d 40       		.byte	64
 600 007e 66       		.byte	102
 601 007f C0       		.byte	-64
 602 0080 68       		.byte	104
 603 0081 C0       		.byte	-64
 604 0082 6A       		.byte	106
 605 0083 C0       		.byte	-64
 606 0084 6C       		.byte	108
 607 0085 C0       		.byte	-64
 608 0086 6E       		.byte	110
 609 0087 C0       		.byte	-64
 610 0088 82       		.byte	-126
 611 0089 04       		.byte	4
 612 008a 8E       		.byte	-114
 613 008b 01       		.byte	1
 614 008c 91       		.byte	-111
 615 008d 02       		.byte	2
 616 008e 92       		.byte	-110
 617 008f 04       		.byte	4
 618 0090 9B       		.byte	-101
 619 0091 03       		.byte	3
 620 0092 9E       		.byte	-98
 621 0093 03       		.byte	3
 622 0094 A6       		.byte	-90
 623 0095 02       		.byte	2
 624 0096 B0       		.byte	-80
 625 0097 02       		.byte	2
 626 0098 B1       		.byte	-79
 627 0099 01       		.byte	1
 628 009a B2       		.byte	-78
 629 009b 01       		.byte	1
 630 009c B6       		.byte	-74
 631 009d 04       		.byte	4
 632 009e B7       		.byte	-73
 633 009f 02       		.byte	2
 634 00a0 BE       		.byte	-66
 635 00a1 44       		.byte	68
 636 00a2 C0       		.byte	-64
 637 00a3 40       		.byte	64
ARM GAS  C:\Users\Svilen\AppData\Local\Temp\ccPYKfAy.s 			page 22


 638 00a4 C1       		.byte	-63
 639 00a5 05       		.byte	5
 640 00a6 C5       		.byte	-59
 641 00a7 D1       		.byte	-47
 642 00a8 C7       		.byte	-57
 643 00a9 20       		.byte	32
 644 00aa C8       		.byte	-56
 645 00ab 23       		.byte	35
 646 00ac C9       		.byte	-55
 647 00ad FF       		.byte	-1
 648 00ae CA       		.byte	-54
 649 00af FF       		.byte	-1
 650 00b0 CB       		.byte	-53
 651 00b1 FF       		.byte	-1
 652 00b2 CD       		.byte	-51
 653 00b3 AF       		.byte	-81
 654 00b4 CE       		.byte	-50
 655 00b5 0F       		.byte	15
 656 00b6 CF       		.byte	-49
 657 00b7 04       		.byte	4
 658 00b8 D0       		.byte	-48
 659 00b9 18       		.byte	24
 660 00ba D4       		.byte	-44
 661 00bb 05       		.byte	5
 662 00bc D8       		.byte	-40
 663 00bd 04       		.byte	4
 664 00be D9       		.byte	-39
 665 00bf 04       		.byte	4
 666 00c0 DA       		.byte	-38
 667 00c1 04       		.byte	4
 668 00c2 DB       		.byte	-37
 669 00c3 04       		.byte	4
 670 00c4 DC       		.byte	-36
 671 00c5 11       		.byte	17
 672 00c6 DD       		.byte	-35
 673 00c7 11       		.byte	17
 674 00c8 DF       		.byte	-33
 675 00c9 01       		.byte	1
 676 00ca E0       		.byte	-32
 677 00cb 40       		.byte	64
 678 00cc E2       		.byte	-30
 679 00cd C0       		.byte	-64
 680 00ce E4       		.byte	-28
 681 00cf 40       		.byte	64
 682 00d0 E5       		.byte	-27
 683 00d1 40       		.byte	64
 684 00d2 E6       		.byte	-26
 685 00d3 C0       		.byte	-64
 686 00d4 E8       		.byte	-24
 687 00d5 C0       		.byte	-64
 688 00d6 EA       		.byte	-22
 689 00d7 C0       		.byte	-64
 690 00d8 EC       		.byte	-20
 691 00d9 C0       		.byte	-64
 692 00da EE       		.byte	-18
 693 00db C0       		.byte	-64
 694 00dc 00       		.byte	0
ARM GAS  C:\Users\Svilen\AppData\Local\Temp\ccPYKfAy.s 			page 23


 695 00dd 02       		.byte	2
 696 00de 02       		.byte	2
 697 00df 02       		.byte	2
 698 00e0 09       		.byte	9
 699 00e1 80       		.byte	-128
 700 00e2 0A       		.byte	10
 701 00e3 40       		.byte	64
 702 00e4 10       		.byte	16
 703 00e5 20       		.byte	32
 704 00e6 17       		.byte	23
 705 00e7 80       		.byte	-128
 706 00e8 19       		.byte	25
 707 00e9 04       		.byte	4
 708 00ea 1A       		.byte	26
 709 00eb 40       		.byte	64
 710 00ec 1B       		.byte	27
 711 00ed 40       		.byte	64
 712 00ee 1C       		.byte	28
 713 00ef 40       		.byte	64
 714 00f0 1D       		.byte	29
 715 00f1 80       		.byte	-128
 716 00f2 21       		.byte	33
 717 00f3 02       		.byte	2
 718 00f4 22       		.byte	34
 719 00f5 40       		.byte	64
 720 00f6 30       		.byte	48
 721 00f7 20       		.byte	32
 722 00f8 31       		.byte	49
 723 00f9 02       		.byte	2
 724 00fa 40       		.byte	64
 725 00fb 40       		.byte	64
 726 00fc 45       		.byte	69
 727 00fd 80       		.byte	-128
 728 00fe 48       		.byte	72
 729 00ff 20       		.byte	32
 730 0100 49       		.byte	73
 731 0101 01       		.byte	1
 732 0102 4A       		.byte	74
 733 0103 02       		.byte	2
 734 0104 4E       		.byte	78
 735 0105 02       		.byte	2
 736 0106 52       		.byte	82
 737 0107 02       		.byte	2
 738 0108 59       		.byte	89
 739 0109 05       		.byte	5
 740 010a 5A       		.byte	90
 741 010b 80       		.byte	-128
 742 010c 68       		.byte	104
 743 010d 01       		.byte	1
 744 010e 77       		.byte	119
 745 010f 80       		.byte	-128
 746 0110 83       		.byte	-125
 747 0111 40       		.byte	64
 748 0112 B6       		.byte	-74
 749 0113 40       		.byte	64
 750 0114 B7       		.byte	-73
 751 0115 20       		.byte	32
ARM GAS  C:\Users\Svilen\AppData\Local\Temp\ccPYKfAy.s 			page 24


 752 0116 C0       		.byte	-64
 753 0117 09       		.byte	9
 754 0118 C2       		.byte	-62
 755 0119 09       		.byte	9
 756 011a C4       		.byte	-60
 757 011b 84       		.byte	-124
 758 011c CC       		.byte	-52
 759 011d 05       		.byte	5
 760 011e D0       		.byte	-48
 761 011f 11       		.byte	17
 762 0120 D2       		.byte	-46
 763 0121 18       		.byte	24
 764 0122 D6       		.byte	-42
 765 0123 0B       		.byte	11
 766 0124 E0       		.byte	-32
 767 0125 04       		.byte	4
 768 0126 EA       		.byte	-22
 769 0127 40       		.byte	64
 770 0128 EE       		.byte	-18
 771 0129 40       		.byte	64
 772 012a 57       		.byte	87
 773 012b 80       		.byte	-128
 774 012c 6D       		.byte	109
 775 012d 10       		.byte	16
 776 012e 81       		.byte	-127
 777 012f 10       		.byte	16
 778 0130 89       		.byte	-119
 779 0131 10       		.byte	16
 780 0132 D4       		.byte	-44
 781 0133 40       		.byte	64
 782 0134 DA       		.byte	-38
 783 0135 80       		.byte	-128
 784 0136 E2       		.byte	-30
 785 0137 80       		.byte	-128
 786 0138 50       		.byte	80
 787 0139 02       		.byte	2
 788 013a 55       		.byte	85
 789 013b 10       		.byte	16
 790 013c A0       		.byte	-96
 791 013d 02       		.byte	2
 792 013e A1       		.byte	-95
 793 013f 10       		.byte	16
 794 0140 B4       		.byte	-76
 795 0141 02       		.byte	2
 796 0142 B7       		.byte	-73
 797 0143 80       		.byte	-128
 798 0144 D4       		.byte	-44
 799 0145 C0       		.byte	-64
 800 0146 53       		.byte	83
 801 0147 02       		.byte	2
 802 0148 83       		.byte	-125
 803 0149 02       		.byte	2
 804 014a D4       		.byte	-44
 805 014b 01       		.byte	1
 806 014c 01       		.byte	1
 807 014d 0A       		.byte	10
 808 014e 10       		.byte	16
ARM GAS  C:\Users\Svilen\AppData\Local\Temp\ccPYKfAy.s 			page 25


 809 014f 0A       		.byte	10
 810              		.text
 811              	.Letext0:
 812              		.file 2 "c:\\program files (x86)\\cypress\\psoc creator\\3.3\\psoc creator\\import\\gnu\\arm\\4.9.
 813              		.file 3 ".\\Generated_Source\\PSoC4\\cytypes.h"
 814              		.file 4 ".\\Generated_Source\\PSoC4\\CyLib.h"