ARM GAS  C:\Users\Svilen\AppData\Local\Temp\cc4HjCTm.s 			page 1


   1              		.cpu cortex-m0
   2              		.fpu softvfp
   3              		.eabi_attribute 20, 1
   4              		.eabi_attribute 21, 1
   5              		.eabi_attribute 23, 3
   6              		.eabi_attribute 24, 1
   7              		.eabi_attribute 25, 1
   8              		.eabi_attribute 26, 1
   9              		.eabi_attribute 30, 1
  10              		.eabi_attribute 34, 0
  11              		.eabi_attribute 18, 4
  12              		.code	16
  13              		.file	"main.c"
  14              		.text
  15              	.Ltext0:
  16              		.cfi_sections	.debug_frame
  17              		.section	.text.TimedIsr,"ax",%progbits
  18              		.align	2
  19              		.global	TimedIsr
  20              		.code	16
  21              		.thumb_func
  22              		.type	TimedIsr, %function
  23              	TimedIsr:
  24              	.LFB34:
  25              		.file 1 ".\\main.c"
   1:.\main.c      **** /* ========================================
   2:.\main.c      ****  *
   3:.\main.c      ****  * Copyright YOUR COMPANY, THE YEAR
   4:.\main.c      ****  * All Rights Reserved
   5:.\main.c      ****  * UNPUBLISHED, LICENSED SOFTWARE.
   6:.\main.c      ****  *
   7:.\main.c      ****  * CONFIDENTIAL AND PROPRIETARY INFORMATION
   8:.\main.c      ****  * WHICH IS THE PROPERTY OF your company.
   9:.\main.c      ****  *
  10:.\main.c      ****  * ========================================
  11:.\main.c      **** */
  12:.\main.c      **** #include <project.h>
  13:.\main.c      **** 
  14:.\main.c      **** #define MAX_RPM 1400
  15:.\main.c      **** #define MIN_RPM 40
  16:.\main.c      **** #define MAX_HEALTH 5
  17:.\main.c      **** #define RPM_CHANGE_STEP 20
  18:.\main.c      **** 
  19:.\main.c      **** uint32 health = 0;
  20:.\main.c      **** uint16 targetRPM = 0;
  21:.\main.c      **** uint16 currentRPM = 0;
  22:.\main.c      **** uint16 prevRPM = 0;
  23:.\main.c      **** uint8 blink=0;
  24:.\main.c      **** 
  25:.\main.c      **** CY_ISR_PROTO(TimedIsr);
  26:.\main.c      **** CY_ISR(TimedIsr)
  27:.\main.c      **** {
  26              		.loc 1 27 0
  27              		.cfi_startproc
  28 0000 08B5     		push	{r3, lr}
  29              		.cfi_def_cfa_offset 8
  30              		.cfi_offset 3, -8
ARM GAS  C:\Users\Svilen\AppData\Local\Temp\cc4HjCTm.s 			page 2


  31              		.cfi_offset 14, -4
  28:.\main.c      ****     //Ако няма връзка с управлението мотора спира
  29:.\main.c      ****     if(health!=0) health--;
  32              		.loc 1 29 0
  33 0002 294B     		ldr	r3, .L13
  34 0004 1B68     		ldr	r3, [r3]
  35 0006 002B     		cmp	r3, #0
  36 0008 03D0     		beq	.L2
  37              		.loc 1 29 0 is_stmt 0 discriminator 1
  38 000a 013B     		sub	r3, r3, #1
  39 000c 264A     		ldr	r2, .L13
  40 000e 1360     		str	r3, [r2]
  41 0010 02E0     		b	.L3
  42              	.L2:
  30:.\main.c      ****     else   targetRPM=0;
  43              		.loc 1 30 0 is_stmt 1
  44 0012 0022     		mov	r2, #0
  45 0014 244B     		ldr	r3, .L13
  46 0016 9A80     		strh	r2, [r3, #4]
  47              	.L3:
  31:.\main.c      ****     
  32:.\main.c      ****     if(targetRPM==0) EnablePWM_Write(0);
  48              		.loc 1 32 0
  49 0018 234B     		ldr	r3, .L13
  50 001a 9B88     		ldrh	r3, [r3, #4]
  51 001c 002B     		cmp	r3, #0
  52 001e 03D1     		bne	.L4
  53              		.loc 1 32 0 is_stmt 0 discriminator 1
  54 0020 0020     		mov	r0, #0
  55 0022 FFF7FEFF 		bl	EnablePWM_Write
  56              	.LVL0:
  57 0026 02E0     		b	.L5
  58              	.L4:
  33:.\main.c      ****     else EnablePWM_Write(1);
  59              		.loc 1 33 0 is_stmt 1
  60 0028 0120     		mov	r0, #1
  61 002a FFF7FEFF 		bl	EnablePWM_Write
  62              	.LVL1:
  63              	.L5:
  34:.\main.c      **** 
  35:.\main.c      ****     if(targetRPM < currentRPM)
  64              		.loc 1 35 0
  65 002e 1E4A     		ldr	r2, .L13
  66 0030 9388     		ldrh	r3, [r2, #4]
  67 0032 D288     		ldrh	r2, [r2, #6]
  68 0034 9342     		cmp	r3, r2
  69 0036 01D2     		bcs	.L6
  36:.\main.c      ****     currentRPM=targetRPM;
  70              		.loc 1 36 0
  71 0038 1B4A     		ldr	r2, .L13
  72 003a D380     		strh	r3, [r2, #6]
  73              	.L6:
  37:.\main.c      ****     /*
  38:.\main.c      ****     {
  39:.\main.c      ****         if((currentRPM-targetRPM)< RPM_CHANGE_STEP) 
  40:.\main.c      ****             currentRPM=targetRPM;         
  41:.\main.c      ****         else
ARM GAS  C:\Users\Svilen\AppData\Local\Temp\cc4HjCTm.s 			page 3


  42:.\main.c      ****             currentRPM -= RPM_CHANGE_STEP;
  43:.\main.c      ****     }*/
  44:.\main.c      ****     if(targetRPM > currentRPM)
  74              		.loc 1 44 0
  75 003c 1A4A     		ldr	r2, .L13
  76 003e D288     		ldrh	r2, [r2, #6]
  77 0040 9342     		cmp	r3, r2
  78 0042 08D9     		bls	.L7
  45:.\main.c      ****     {
  46:.\main.c      ****         if((targetRPM-currentRPM)<RPM_CHANGE_STEP) 
  79              		.loc 1 46 0
  80 0044 991A     		sub	r1, r3, r2
  81 0046 1329     		cmp	r1, #19
  82 0048 02DC     		bgt	.L8
  47:.\main.c      ****             currentRPM=targetRPM;
  83              		.loc 1 47 0
  84 004a 174A     		ldr	r2, .L13
  85 004c D380     		strh	r3, [r2, #6]
  86 004e 02E0     		b	.L7
  87              	.L8:
  48:.\main.c      ****         else
  49:.\main.c      ****             currentRPM += RPM_CHANGE_STEP;
  88              		.loc 1 49 0
  89 0050 1432     		add	r2, r2, #20
  90 0052 154B     		ldr	r3, .L13
  91 0054 DA80     		strh	r2, [r3, #6]
  92              	.L7:
  50:.\main.c      ****     }
  51:.\main.c      ****     
  52:.\main.c      ****     if(currentRPM!=prevRPM)
  93              		.loc 1 52 0
  94 0056 144B     		ldr	r3, .L13
  95 0058 D888     		ldrh	r0, [r3, #6]
  96 005a 1B89     		ldrh	r3, [r3, #8]
  97 005c 9842     		cmp	r0, r3
  98 005e 08D0     		beq	.L9
  53:.\main.c      ****     {
  54:.\main.c      ****         PWM_WritePeriod(1600-currentRPM);
  99              		.loc 1 54 0
 100 0060 C823     		mov	r3, #200
 101 0062 DB00     		lsl	r3, r3, #3
 102 0064 181A     		sub	r0, r3, r0
 103 0066 80B2     		uxth	r0, r0
 104 0068 FFF7FEFF 		bl	PWM_WritePeriod
 105              	.LVL2:
  55:.\main.c      ****         prevRPM=currentRPM;
 106              		.loc 1 55 0
 107 006c 0E4B     		ldr	r3, .L13
 108 006e DA88     		ldrh	r2, [r3, #6]
 109 0070 1A81     		strh	r2, [r3, #8]
 110              	.L9:
  56:.\main.c      ****     }
  57:.\main.c      ****     
  58:.\main.c      ****     if(currentRPM==0) 
 111              		.loc 1 58 0
 112 0072 0D4B     		ldr	r3, .L13
 113 0074 DB88     		ldrh	r3, [r3, #6]
ARM GAS  C:\Users\Svilen\AppData\Local\Temp\cc4HjCTm.s 			page 4


 114 0076 002B     		cmp	r3, #0
 115 0078 03D1     		bne	.L10
  59:.\main.c      ****     {//GREEN LED when no rotation
  60:.\main.c      ****         LED_G_Write(0);
 116              		.loc 1 60 0
 117 007a 0020     		mov	r0, #0
 118 007c FFF7FEFF 		bl	LED_G_Write
 119              	.LVL3:
 120 0080 10E0     		b	.L1
 121              	.L10:
  61:.\main.c      ****     }else
  62:.\main.c      ****     {
  63:.\main.c      ****         if(blink==0) 
 122              		.loc 1 63 0
 123 0082 094B     		ldr	r3, .L13
 124 0084 9B7A     		ldrb	r3, [r3, #10]
 125 0086 002B     		cmp	r3, #0
 126 0088 06D1     		bne	.L12
  64:.\main.c      ****         {
  65:.\main.c      ****             LED_G_Write(0);
 127              		.loc 1 65 0
 128 008a 0020     		mov	r0, #0
 129 008c FFF7FEFF 		bl	LED_G_Write
 130              	.LVL4:
  66:.\main.c      ****             blink=1;
 131              		.loc 1 66 0
 132 0090 0122     		mov	r2, #1
 133 0092 054B     		ldr	r3, .L13
 134 0094 9A72     		strb	r2, [r3, #10]
 135 0096 05E0     		b	.L1
 136              	.L12:
  67:.\main.c      ****         }
  68:.\main.c      ****         else
  69:.\main.c      ****         {
  70:.\main.c      ****             LED_G_Write(1);
 137              		.loc 1 70 0
 138 0098 0120     		mov	r0, #1
 139 009a FFF7FEFF 		bl	LED_G_Write
 140              	.LVL5:
  71:.\main.c      ****             blink=0;
 141              		.loc 1 71 0
 142 009e 0022     		mov	r2, #0
 143 00a0 014B     		ldr	r3, .L13
 144 00a2 9A72     		strb	r2, [r3, #10]
 145              	.L1:
  72:.\main.c      ****         }
  73:.\main.c      ****     }
  74:.\main.c      **** }
 146              		.loc 1 74 0
 147              		@ sp needed
 148 00a4 08BD     		pop	{r3, pc}
 149              	.L14:
 150 00a6 C046     		.align	2
 151              	.L13:
 152 00a8 00000000 		.word	.LANCHOR0
 153              		.cfi_endproc
 154              	.LFE34:
ARM GAS  C:\Users\Svilen\AppData\Local\Temp\cc4HjCTm.s 			page 5


 155              		.size	TimedIsr, .-TimedIsr
 156              		.section	.text.main,"ax",%progbits
 157              		.align	2
 158              		.global	main
 159              		.code	16
 160              		.thumb_func
 161              		.type	main, %function
 162              	main:
 163              	.LFB35:
  75:.\main.c      **** 
  76:.\main.c      **** 
  77:.\main.c      **** 
  78:.\main.c      **** int main()
  79:.\main.c      **** {
 164              		.loc 1 79 0
 165              		.cfi_startproc
 166 0000 10B5     		push	{r4, lr}
 167              		.cfi_def_cfa_offset 8
 168              		.cfi_offset 4, -8
 169              		.cfi_offset 14, -4
  80:.\main.c      ****         
  81:.\main.c      ****     // Max RPM = 255, Limit 120 rpm
  82:.\main.c      ****     // Motor 800 pulses per rotation, 204000 pulses per minute, 
  83:.\main.c      ****     // 3400 pulses per sec for 255 rpm
  84:.\main.c      ****     // PWM Period = 7500/RPM    
  85:.\main.c      ****    
  86:.\main.c      ****     
  87:.\main.c      ****     ADC_Start();
 170              		.loc 1 87 0
 171 0002 FFF7FEFF 		bl	ADC_Start
 172              	.LVL6:
  88:.\main.c      ****     ADC_StartConvert();
 173              		.loc 1 88 0
 174 0006 FFF7FEFF 		bl	ADC_StartConvert
 175              	.LVL7:
  89:.\main.c      ****     PWM_Start();
 176              		.loc 1 89 0
 177 000a FFF7FEFF 		bl	PWM_Start
 178              	.LVL8:
  90:.\main.c      ****     EnablePWM_Write(0);
 179              		.loc 1 90 0
 180 000e 0020     		mov	r0, #0
 181 0010 FFF7FEFF 		bl	EnablePWM_Write
 182              	.LVL9:
  91:.\main.c      ****     LED_G_Write(1);
 183              		.loc 1 91 0
 184 0014 0120     		mov	r0, #1
 185 0016 FFF7FEFF 		bl	LED_G_Write
 186              	.LVL10:
  92:.\main.c      ****     LED_R_Write(1);
 187              		.loc 1 92 0
 188 001a 0120     		mov	r0, #1
 189 001c FFF7FEFF 		bl	LED_R_Write
 190              	.LVL11:
  93:.\main.c      ****     PWM_WritePeriod(0);
 191              		.loc 1 93 0
 192 0020 0020     		mov	r0, #0
ARM GAS  C:\Users\Svilen\AppData\Local\Temp\cc4HjCTm.s 			page 6


 193 0022 FFF7FEFF 		bl	PWM_WritePeriod
 194              	.LVL12:
 195              	.L16:
  94:.\main.c      ****     uint16 adc = 0;
  95:.\main.c      **** 
  96:.\main.c      ****     //Блокира въртенето ако потенциометъра е в позиция р
  97:.\main.c      ****     do
  98:.\main.c      ****     {
  99:.\main.c      ****         ADC_IsEndConversion(ADC_WAIT_FOR_RESULT);
 196              		.loc 1 99 0 discriminator 1
 197 0026 0220     		mov	r0, #2
 198 0028 FFF7FEFF 		bl	ADC_IsEndConversion
 199              	.LVL13:
 100:.\main.c      ****         adc = ADC_GetResult16(0);
 200              		.loc 1 100 0 discriminator 1
 201 002c 0020     		mov	r0, #0
 202 002e FFF7FEFF 		bl	ADC_GetResult16
 203              	.LVL14:
 204 0032 84B2     		uxth	r4, r0
 205              	.LVL15:
 101:.\main.c      ****         LED_G_Write(1);
 206              		.loc 1 101 0 discriminator 1
 207 0034 0120     		mov	r0, #1
 208 0036 FFF7FEFF 		bl	LED_G_Write
 209              	.LVL16:
 102:.\main.c      ****         LED_R_Write(0);
 210              		.loc 1 102 0 discriminator 1
 211 003a 0020     		mov	r0, #0
 212 003c FFF7FEFF 		bl	LED_R_Write
 213              	.LVL17:
 103:.\main.c      ****         CyDelay(100);
 214              		.loc 1 103 0 discriminator 1
 215 0040 6420     		mov	r0, #100
 216 0042 FFF7FEFF 		bl	CyDelay
 217              	.LVL18:
 104:.\main.c      ****         LED_R_Write(1);
 218              		.loc 1 104 0 discriminator 1
 219 0046 0120     		mov	r0, #1
 220 0048 FFF7FEFF 		bl	LED_R_Write
 221              	.LVL19:
 105:.\main.c      ****         CyDelay(100);
 222              		.loc 1 105 0 discriminator 1
 223 004c 6420     		mov	r0, #100
 224 004e FFF7FEFF 		bl	CyDelay
 225              	.LVL20:
 106:.\main.c      ****     }while(adc>35);
 226              		.loc 1 106 0 discriminator 1
 227 0052 232C     		cmp	r4, #35
 228 0054 E7D8     		bhi	.L16
 107:.\main.c      ****     EnablePWM_Write(1);
 229              		.loc 1 107 0
 230 0056 0120     		mov	r0, #1
 231 0058 FFF7FEFF 		bl	EnablePWM_Write
 232              	.LVL21:
 108:.\main.c      ****     LED_R_Write(1);
 233              		.loc 1 108 0
 234 005c 0120     		mov	r0, #1
ARM GAS  C:\Users\Svilen\AppData\Local\Temp\cc4HjCTm.s 			page 7


 235 005e FFF7FEFF 		bl	LED_R_Write
 236              	.LVL22:
 109:.\main.c      ****     
 110:.\main.c      ****     isr_Timed_StartEx(TimedIsr);
 237              		.loc 1 110 0
 238 0062 1348     		ldr	r0, .L22
 239 0064 FFF7FEFF 		bl	isr_Timed_StartEx
 240              	.LVL23:
 111:.\main.c      ****     CyGlobalIntEnable; /* Enable global interrupts. */
 241              		.loc 1 111 0
 242              	@ 111 ".\main.c" 1
 243 0068 62B6     		CPSIE   i
 244              	@ 0 "" 2
 112:.\main.c      **** 
 113:.\main.c      ****     LED_G_Write(0);
 245              		.loc 1 113 0
 246              		.code	16
 247 006a 0020     		mov	r0, #0
 248 006c FFF7FEFF 		bl	LED_G_Write
 249              	.LVL24:
 114:.\main.c      ****     LED_R_Write(1);
 250              		.loc 1 114 0
 251 0070 0120     		mov	r0, #1
 252 0072 FFF7FEFF 		bl	LED_R_Write
 253              	.LVL25:
 254              	.L17:
 115:.\main.c      **** 
 116:.\main.c      ****     for(;;)
 117:.\main.c      ****     {
 118:.\main.c      ****         /* Прочитане на ADC */
 119:.\main.c      ****         ADC_IsEndConversion(ADC_WAIT_FOR_RESULT);
 255              		.loc 1 119 0
 256 0076 0220     		mov	r0, #2
 257 0078 FFF7FEFF 		bl	ADC_IsEndConversion
 258              	.LVL26:
 120:.\main.c      ****         adc = ADC_GetResult16(0);
 259              		.loc 1 120 0
 260 007c 0020     		mov	r0, #0
 261 007e FFF7FEFF 		bl	ADC_GetResult16
 262              	.LVL27:
 263 0082 80B2     		uxth	r0, r0
 264              	.LVL28:
 121:.\main.c      ****         
 122:.\main.c      ****         if(adc!=0)
 265              		.loc 1 122 0
 266 0084 0028     		cmp	r0, #0
 267 0086 F6D0     		beq	.L17
 123:.\main.c      ****         {
 124:.\main.c      ****             if(adc<MIN_RPM) targetRPM = 0;
 268              		.loc 1 124 0
 269 0088 2728     		cmp	r0, #39
 270 008a 03D8     		bhi	.L18
 271              		.loc 1 124 0 is_stmt 0 discriminator 1
 272 008c 0022     		mov	r2, #0
 273 008e 094B     		ldr	r3, .L22+4
 274 0090 9A80     		strh	r2, [r3, #4]
 275 0092 09E0     		b	.L19
ARM GAS  C:\Users\Svilen\AppData\Local\Temp\cc4HjCTm.s 			page 8


 276              	.L18:
 125:.\main.c      ****             else 
 126:.\main.c      ****                 if(adc>MAX_RPM) targetRPM = MAX_RPM;
 277              		.loc 1 126 0 is_stmt 1
 278 0094 AF23     		mov	r3, #175
 279 0096 DB00     		lsl	r3, r3, #3
 280 0098 9842     		cmp	r0, r3
 281 009a 03D9     		bls	.L20
 282              		.loc 1 126 0 is_stmt 0 discriminator 1
 283 009c 1A1C     		mov	r2, r3
 284 009e 054B     		ldr	r3, .L22+4
 285 00a0 9A80     		strh	r2, [r3, #4]
 286 00a2 01E0     		b	.L19
 287              	.L20:
 127:.\main.c      ****                 else targetRPM = adc;
 288              		.loc 1 127 0 is_stmt 1
 289 00a4 034B     		ldr	r3, .L22+4
 290 00a6 9880     		strh	r0, [r3, #4]
 291              	.L19:
 128:.\main.c      ****             health = MAX_HEALTH;
 292              		.loc 1 128 0
 293 00a8 0522     		mov	r2, #5
 294 00aa 024B     		ldr	r3, .L22+4
 295 00ac 1A60     		str	r2, [r3]
 296 00ae E2E7     		b	.L17
 297              	.L23:
 298              		.align	2
 299              	.L22:
 300 00b0 00000000 		.word	TimedIsr
 301 00b4 00000000 		.word	.LANCHOR0
 302              		.cfi_endproc
 303              	.LFE35:
 304              		.size	main, .-main
 305              		.global	blink
 306              		.global	prevRPM
 307              		.global	currentRPM
 308              		.global	targetRPM
 309              		.global	health
 310              		.bss
 311              		.align	2
 312              		.set	.LANCHOR0,. + 0
 313              		.type	health, %object
 314              		.size	health, 4
 315              	health:
 316 0000 00000000 		.space	4
 317              		.type	targetRPM, %object
 318              		.size	targetRPM, 2
 319              	targetRPM:
 320 0004 0000     		.space	2
 321              		.type	currentRPM, %object
 322              		.size	currentRPM, 2
 323              	currentRPM:
 324 0006 0000     		.space	2
 325              		.type	prevRPM, %object
 326              		.size	prevRPM, 2
 327              	prevRPM:
 328 0008 0000     		.space	2
ARM GAS  C:\Users\Svilen\AppData\Local\Temp\cc4HjCTm.s 			page 9


 329              		.type	blink, %object
 330              		.size	blink, 1
 331              	blink:
 332 000a 00       		.space	1
 333 000b 00       		.text
 334              	.Letext0:
 335              		.file 2 "Generated_Source\\PSoC4/cytypes.h"
 336              		.file 3 "Generated_Source\\PSoC4/EnablePWM.h"
 337              		.file 4 "Generated_Source\\PSoC4/PWM.h"
 338              		.file 5 "Generated_Source\\PSoC4/LED_G.h"
 339              		.file 6 "Generated_Source\\PSoC4/ADC.h"
 340              		.file 7 "Generated_Source\\PSoC4/LED_R.h"
 341              		.file 8 "Generated_Source\\PSoC4/CyLib.h"
 342              		.file 9 "Generated_Source\\PSoC4/isr_Timed.h"